Friday, March 06, 19:24:04, 2009

                    Generalplus u'nSP Linker version 1.14.13.6 (enc)
                    -------------------------------------------

Global Symbol Name                                Global Value     Global Filename
***********************************************************************************************************************************************************************************************************************************************************************************************************
_RESET                                                   8009      "C:\Program Files\Generalplus\unSPIDE 3.0.4\startupcode\startupD.obj"
__sn_loop                                                8025      "C:\Program Files\Generalplus\unSPIDE 3.0.4\startupcode\startupD.obj"
__sn_loop2                                               8024      "C:\Program Files\Generalplus\unSPIDE 3.0.4\startupcode\startupD.obj"
__sn_init_table                                          8000      "Linker internal symbol"
__sn_sp_val                                              7FF       "Linker internal symbol"
_RES_Table                                               8026      "D:\WorkingFolder\Library_Release\SACMV41b_Beta\GPCE063A_Example_V41b\GPCE063A Example Code\DVR1800\Debug\Resource.obj"
_RES_E316K_A18_SA                                        8026      "D:\WorkingFolder\Library_Release\SACMV41b_Beta\GPCE063A_Example_V41b\GPCE063A Example Code\DVR1800\Debug\Resource.obj"
_RES_E316K_A18_EA                                        8028      "D:\WorkingFolder\Library_Release\SACMV41b_Beta\GPCE063A_Example_V41b\GPCE063A Example Code\DVR1800\Debug\Resource.obj"
T_SACM_DVR1800_SpeechTable                               802A      "D:\WorkingFolder\Library_Release\SACMV41b_Beta\GPCE063A_Example_V41b\GPCE063A Example Code\DVR1800\Debug\Resource.obj"
_BREAK                                                   8048      "D:\WorkingFolder\Library_Release\SACMV41b_Beta\GPCE063A_Example_V41b\GPCE063A Example Code\DVR1800\Debug\Isr.obj"
_FIQ                                                     802B      "D:\WorkingFolder\Library_Release\SACMV41b_Beta\GPCE063A_Example_V41b\GPCE063A Example Code\DVR1800\Debug\Isr.obj"
_IRQ0                                                    804B      "D:\WorkingFolder\Library_Release\SACMV41b_Beta\GPCE063A_Example_V41b\GPCE063A Example Code\DVR1800\Debug\Isr.obj"
_IRQ1                                                    804E      "D:\WorkingFolder\Library_Release\SACMV41b_Beta\GPCE063A_Example_V41b\GPCE063A Example Code\DVR1800\Debug\Isr.obj"
_IRQ2                                                    8051      "D:\WorkingFolder\Library_Release\SACMV41b_Beta\GPCE063A_Example_V41b\GPCE063A Example Code\DVR1800\Debug\Isr.obj"
_IRQ3                                                    8054      "D:\WorkingFolder\Library_Release\SACMV41b_Beta\GPCE063A_Example_V41b\GPCE063A Example Code\DVR1800\Debug\Isr.obj"
_IRQ4                                                    8057      "D:\WorkingFolder\Library_Release\SACMV41b_Beta\GPCE063A_Example_V41b\GPCE063A Example Code\DVR1800\Debug\Isr.obj"
_IRQ5                                                    805A      "D:\WorkingFolder\Library_Release\SACMV41b_Beta\GPCE063A_Example_V41b\GPCE063A Example Code\DVR1800\Debug\Isr.obj"
_IRQ6                                                    805D      "D:\WorkingFolder\Library_Release\SACMV41b_Beta\GPCE063A_Example_V41b\GPCE063A Example Code\DVR1800\Debug\Isr.obj"
_IRQ7                                                    8060      "D:\WorkingFolder\Library_Release\SACMV41b_Beta\GPCE063A_Example_V41b\GPCE063A Example Code\DVR1800\Debug\Isr.obj"
_main                                                    C956      "D:\WorkingFolder\Library_Release\SACMV41b_Beta\GPCE063A_Example_V41b\GPCE063A Example Code\DVR1800\Debug\main.obj"
_Key                                                     593       "D:\WorkingFolder\Library_Release\SACMV41b_Beta\GPCE063A_Example_V41b\GPCE063A Example Code\DVR1800\Debug\main.obj"
_SpeechIndex                                             594       "D:\WorkingFolder\Library_Release\SACMV41b_Beta\GPCE063A_Example_V41b\GPCE063A Example Code\DVR1800\Debug\main.obj"
_VolumeIndex                                             595       "D:\WorkingFolder\Library_Release\SACMV41b_Beta\GPCE063A_Example_V41b\GPCE063A Example Code\DVR1800\Debug\main.obj"
_BitRate                                                 596       "D:\WorkingFolder\Library_Release\SACMV41b_Beta\GPCE063A_Example_V41b\GPCE063A Example Code\DVR1800\Debug\main.obj"
_ADC_Channel                                             597       "D:\WorkingFolder\Library_Release\SACMV41b_Beta\GPCE063A_Example_V41b\GPCE063A Example Code\DVR1800\Debug\main.obj"
_ADC_FIR_Type                                            598       "D:\WorkingFolder\Library_Release\SACMV41b_Beta\GPCE063A_Example_V41b\GPCE063A Example Code\DVR1800\Debug\main.obj"
_DAC_FIR_Type                                            599       "D:\WorkingFolder\Library_Release\SACMV41b_Beta\GPCE063A_Example_V41b\GPCE063A Example Code\DVR1800\Debug\main.obj"
_PauseFlag                                               59A       "D:\WorkingFolder\Library_Release\SACMV41b_Beta\GPCE063A_Example_V41b\GPCE063A Example Code\DVR1800\Debug\main.obj"
_PlayCon                                                 59B       "D:\WorkingFolder\Library_Release\SACMV41b_Beta\GPCE063A_Example_V41b\GPCE063A Example Code\DVR1800\Debug\main.obj"
_Mode                                                    59C       "D:\WorkingFolder\Library_Release\SACMV41b_Beta\GPCE063A_Example_V41b\GPCE063A Example Code\DVR1800\Debug\main.obj"
_System_Initial                                          CB9A      "D:\WorkingFolder\Library_Release\SACMV41b_Beta\GPCE063A_Example_V41b\GPCE063A Example Code\DVR1800\Debug\System.obj"
F_System_Initial                                         CB9A      "D:\WorkingFolder\Library_Release\SACMV41b_Beta\GPCE063A_Example_V41b\GPCE063A Example Code\DVR1800\Debug\System.obj"
_System_ServiceLoop                                      CBBC      "D:\WorkingFolder\Library_Release\SACMV41b_Beta\GPCE063A_Example_V41b\GPCE063A Example Code\DVR1800\Debug\System.obj"
F_System_ServiceLoop                                     CBBC      "D:\WorkingFolder\Library_Release\SACMV41b_Beta\GPCE063A_Example_V41b\GPCE063A Example Code\DVR1800\Debug\System.obj"
_WatchdogClear                                           CBB7      "D:\WorkingFolder\Library_Release\SACMV41b_Beta\GPCE063A_Example_V41b\GPCE063A Example Code\DVR1800\Debug\System.obj"
F_WatchdogClear                                          CBB7      "D:\WorkingFolder\Library_Release\SACMV41b_Beta\GPCE063A_Example_V41b\GPCE063A Example Code\DVR1800\Debug\System.obj"
_SP_GetCh                                                CBF6      "D:\WorkingFolder\Library_Release\SACMV41b_Beta\GPCE063A_Example_V41b\GPCE063A Example Code\DVR1800\Debug\System.obj"
F_SP_GetCh                                               CBF6      "D:\WorkingFolder\Library_Release\SACMV41b_Beta\GPCE063A_Example_V41b\GPCE063A Example Code\DVR1800\Debug\System.obj"
_SP_SwitchChannel                                        CB7E      "D:\WorkingFolder\Library_Release\SACMV41b_Beta\GPCE063A_Example_V41b\GPCE063A Example Code\DVR1800\Debug\System.obj"
F_SP_SwitchChannel                                       CB81      "D:\WorkingFolder\Library_Release\SACMV41b_Beta\GPCE063A_Example_V41b\GPCE063A Example Code\DVR1800\Debug\System.obj"
_SP_RampUpDAC1                                           CC1C      "D:\WorkingFolder\Library_Release\SACMV41b_Beta\GPCE063A_Example_V41b\GPCE063A Example Code\DVR1800\Debug\System.obj"
F_SP_RampUpDAC1                                          CC1C      "D:\WorkingFolder\Library_Release\SACMV41b_Beta\GPCE063A_Example_V41b\GPCE063A Example Code\DVR1800\Debug\System.obj"
_SP_RampDnDAC1                                           CBFC      "D:\WorkingFolder\Library_Release\SACMV41b_Beta\GPCE063A_Example_V41b\GPCE063A Example Code\DVR1800\Debug\System.obj"
F_SP_RampDnDAC1                                          CBFC      "D:\WorkingFolder\Library_Release\SACMV41b_Beta\GPCE063A_Example_V41b\GPCE063A Example Code\DVR1800\Debug\System.obj"
_SP_RampUpDAC2                                           CC39      "D:\WorkingFolder\Library_Release\SACMV41b_Beta\GPCE063A_Example_V41b\GPCE063A Example Code\DVR1800\Debug\System.obj"
F_SP_RampUpDAC2                                          CC39      "D:\WorkingFolder\Library_Release\SACMV41b_Beta\GPCE063A_Example_V41b\GPCE063A Example Code\DVR1800\Debug\System.obj"
_SP_RampDnDAC2                                           CC19      "D:\WorkingFolder\Library_Release\SACMV41b_Beta\GPCE063A_Example_V41b\GPCE063A Example Code\DVR1800\Debug\System.obj"
F_SP_RampDnDAC2                                          CC19      "D:\WorkingFolder\Library_Release\SACMV41b_Beta\GPCE063A_Example_V41b\GPCE063A Example Code\DVR1800\Debug\System.obj"
_USER_DVR1800_SetStartAddr                               CB13      "D:\WorkingFolder\Library_Release\SACMV41b_Beta\GPCE063A_Example_V41b\GPCE063A Example Code\DVR1800\Debug\SACM_DVR1800_User.obj"
F_USER_DVR1800_SetStartAddr                              CB17      "D:\WorkingFolder\Library_Release\SACMV41b_Beta\GPCE063A_Example_V41b\GPCE063A Example Code\DVR1800\Debug\SACM_DVR1800_User.obj"
_USER_DVR1800_SetStartAddr_Con                           CB2E      "D:\WorkingFolder\Library_Release\SACMV41b_Beta\GPCE063A_Example_V41b\GPCE063A Example Code\DVR1800\Debug\SACM_DVR1800_User.obj"
F_USER_DVR1800_SetStartAddr_Con                          CB31      "D:\WorkingFolder\Library_Release\SACMV41b_Beta\GPCE063A_Example_V41b\GPCE063A Example Code\DVR1800\Debug\SACM_DVR1800_User.obj"
F_USER_DVR1800_GetData                                   CB49      "D:\WorkingFolder\Library_Release\SACMV41b_Beta\GPCE063A_Example_V41b\GPCE063A Example Code\DVR1800\Debug\SACM_DVR1800_User.obj"
F_USER_DVR1800_WriteData                                 CB71      "D:\WorkingFolder\Library_Release\SACMV41b_Beta\GPCE063A_Example_V41b\GPCE063A Example Code\DVR1800\Debug\SACM_DVR1800_User.obj"
_USER_DVR1800_Volume                                     CAD4      "D:\WorkingFolder\Library_Release\SACMV41b_Beta\GPCE063A_Example_V41b\GPCE063A Example Code\DVR1800\Debug\SACM_DVR1800_User.obj"
F_USER_DVR1800_Volume                                    CAD7      "D:\WorkingFolder\Library_Release\SACMV41b_Beta\GPCE063A_Example_V41b\GPCE063A Example Code\DVR1800\Debug\SACM_DVR1800_User.obj"
F_SACM_DVR1800_SendDAC1                                  CAFD      "D:\WorkingFolder\Library_Release\SACMV41b_Beta\GPCE063A_Example_V41b\GPCE063A Example Code\DVR1800\Debug\SACM_DVR1800_User.obj"
F_SACM_DVR1800_SendDAC2                                  CB00      "D:\WorkingFolder\Library_Release\SACMV41b_Beta\GPCE063A_Example_V41b\GPCE063A Example Code\DVR1800\Debug\SACM_DVR1800_User.obj"
F_SACM_DVR1800_GetADC                                    CAFA      "D:\WorkingFolder\Library_Release\SACMV41b_Beta\GPCE063A_Example_V41b\GPCE063A Example Code\DVR1800\Debug\SACM_DVR1800_User.obj"
F_SACM_DVR1800_StartPlay                                 CB01      "D:\WorkingFolder\Library_Release\SACMV41b_Beta\GPCE063A_Example_V41b\GPCE063A Example Code\DVR1800\Debug\SACM_DVR1800_User.obj"
F_SACM_DVR1800_EndPlay                                   CB03      "D:\WorkingFolder\Library_Release\SACMV41b_Beta\GPCE063A_Example_V41b\GPCE063A Example Code\DVR1800\Debug\SACM_DVR1800_User.obj"
F_SACM_DVR1800_StartRecord                               CB05      "D:\WorkingFolder\Library_Release\SACMV41b_Beta\GPCE063A_Example_V41b\GPCE063A Example Code\DVR1800\Debug\SACM_DVR1800_User.obj"
F_SACM_DVR1800_EndRecord                                 CB07      "D:\WorkingFolder\Library_Release\SACMV41b_Beta\GPCE063A_Example_V41b\GPCE063A Example Code\DVR1800\Debug\SACM_DVR1800_User.obj"
F_SACM_DVR1800_Init_                                     CAB5      "D:\WorkingFolder\Library_Release\SACMV41b_Beta\GPCE063A_Example_V41b\GPCE063A Example Code\DVR1800\Debug\SACM_DVR1800_User.obj"
F_SACM_DVR1800_DAC_Timer_X1                              CADD      "D:\WorkingFolder\Library_Release\SACMV41b_Beta\GPCE063A_Example_V41b\GPCE063A Example Code\DVR1800\Debug\SACM_DVR1800_User.obj"
F_SACM_DVR1800_DAC_Timer_X2                              CAE2      "D:\WorkingFolder\Library_Release\SACMV41b_Beta\GPCE063A_Example_V41b\GPCE063A Example Code\DVR1800\Debug\SACM_DVR1800_User.obj"
F_SACM_DVR1800_ADC_Timer_X1                              CAE9      "D:\WorkingFolder\Library_Release\SACMV41b_Beta\GPCE063A_Example_V41b\GPCE063A Example Code\DVR1800\Debug\SACM_DVR1800_User.obj"
F_SACM_DVR1800_ADC_Timer_X2                              CAEE      "D:\WorkingFolder\Library_Release\SACMV41b_Beta\GPCE063A_Example_V41b\GPCE063A Example Code\DVR1800\Debug\SACM_DVR1800_User.obj"
F_SACM_DVR1800_ADC_Timer_X4                              CAF3      "D:\WorkingFolder\Library_Release\SACMV41b_Beta\GPCE063A_Example_V41b\GPCE063A Example Code\DVR1800\Debug\SACM_DVR1800_User.obj"
F_SACM_DVR1800_GetStartAddr_Con                          CB40      "D:\WorkingFolder\Library_Release\SACMV41b_Beta\GPCE063A_Example_V41b\GPCE063A Example Code\DVR1800\Debug\SACM_DVR1800_User.obj"
_SPI_Initial                                             C5B8      "D:\WorkingFolder\Library_Release\SACMV41b_Beta\GPCE063A_Example_V41b\GPCE063A Example Code\DVR1800\Debug\SPI_Flash_CE063.obj"
F_SPI_Initial                                            C5B8      "D:\WorkingFolder\Library_Release\SACMV41b_Beta\GPCE063A_Example_V41b\GPCE063A Example Code\DVR1800\Debug\SPI_Flash_CE063.obj"
_SPI_ReadAWord                                           C5FE      "D:\WorkingFolder\Library_Release\SACMV41b_Beta\GPCE063A_Example_V41b\GPCE063A Example Code\DVR1800\Debug\SPI_Flash_CE063.obj"
F_SPI_ReadAWord                                          C602      "D:\WorkingFolder\Library_Release\SACMV41b_Beta\GPCE063A_Example_V41b\GPCE063A Example Code\DVR1800\Debug\SPI_Flash_CE063.obj"
_SPI_ReadNWords                                          C633      "D:\WorkingFolder\Library_Release\SACMV41b_Beta\GPCE063A_Example_V41b\GPCE063A Example Code\DVR1800\Debug\SPI_Flash_CE063.obj"
F_SPI_ReadNWords                                         C639      "D:\WorkingFolder\Library_Release\SACMV41b_Beta\GPCE063A_Example_V41b\GPCE063A Example Code\DVR1800\Debug\SPI_Flash_CE063.obj"
_SPI_SendAWord                                           C66D      "D:\WorkingFolder\Library_Release\SACMV41b_Beta\GPCE063A_Example_V41b\GPCE063A Example Code\DVR1800\Debug\SPI_Flash_CE063.obj"
F_SPI_SendAWord                                          C672      "D:\WorkingFolder\Library_Release\SACMV41b_Beta\GPCE063A_Example_V41b\GPCE063A Example Code\DVR1800\Debug\SPI_Flash_CE063.obj"
_SPI_SendNWords                                          C6A4      "D:\WorkingFolder\Library_Release\SACMV41b_Beta\GPCE063A_Example_V41b\GPCE063A Example Code\DVR1800\Debug\SPI_Flash_CE063.obj"
F_SPI_SendNWords                                         C6AA      "D:\WorkingFolder\Library_Release\SACMV41b_Beta\GPCE063A_Example_V41b\GPCE063A Example Code\DVR1800\Debug\SPI_Flash_CE063.obj"
_Flash_Write_Enable                                      C6F2      "D:\WorkingFolder\Library_Release\SACMV41b_Beta\GPCE063A_Example_V41b\GPCE063A Example Code\DVR1800\Debug\SPI_Flash_CE063.obj"
F_Flash_Write_Enable                                     C6F2      "D:\WorkingFolder\Library_Release\SACMV41b_Beta\GPCE063A_Example_V41b\GPCE063A Example Code\DVR1800\Debug\SPI_Flash_CE063.obj"
_Flash_Write_Disable                                     C705      "D:\WorkingFolder\Library_Release\SACMV41b_Beta\GPCE063A_Example_V41b\GPCE063A Example Code\DVR1800\Debug\SPI_Flash_CE063.obj"
F_Flash_Write_Disable                                    C705      "D:\WorkingFolder\Library_Release\SACMV41b_Beta\GPCE063A_Example_V41b\GPCE063A Example Code\DVR1800\Debug\SPI_Flash_CE063.obj"
_SPI_Read_Status_Register                                C715      "D:\WorkingFolder\Library_Release\SACMV41b_Beta\GPCE063A_Example_V41b\GPCE063A Example Code\DVR1800\Debug\SPI_Flash_CE063.obj"
F_SPI_Read_Status_Register                               C715      "D:\WorkingFolder\Library_Release\SACMV41b_Beta\GPCE063A_Example_V41b\GPCE063A Example Code\DVR1800\Debug\SPI_Flash_CE063.obj"
_SPI_Enable_Write_Status_Registe                         C728      "D:\WorkingFolder\Library_Release\SACMV41b_Beta\GPCE063A_Example_V41b\GPCE063A Example Code\DVR1800\Debug\SPI_Flash_CE063.obj"
F_SPI_Enable_Write_Status_Regist                         C728      "D:\WorkingFolder\Library_Release\SACMV41b_Beta\GPCE063A_Example_V41b\GPCE063A Example Code\DVR1800\Debug\SPI_Flash_CE063.obj"
_SPI_Write_Status_Register                               C738      "D:\WorkingFolder\Library_Release\SACMV41b_Beta\GPCE063A_Example_V41b\GPCE063A Example Code\DVR1800\Debug\SPI_Flash_CE063.obj"
F_SPI_Write_Status_Register                              C73B      "D:\WorkingFolder\Library_Release\SACMV41b_Beta\GPCE063A_Example_V41b\GPCE063A Example Code\DVR1800\Debug\SPI_Flash_CE063.obj"
_SPI_Flash_Sector_Erase                                  C74F      "D:\WorkingFolder\Library_Release\SACMV41b_Beta\GPCE063A_Example_V41b\GPCE063A Example Code\DVR1800\Debug\SPI_Flash_CE063.obj"
F_SPI_Flash_Sector_Erase                                 C752      "D:\WorkingFolder\Library_Release\SACMV41b_Beta\GPCE063A_Example_V41b\GPCE063A Example Code\DVR1800\Debug\SPI_Flash_CE063.obj"
_SPI_Flash_Chip_Erase                                    C77F      "D:\WorkingFolder\Library_Release\SACMV41b_Beta\GPCE063A_Example_V41b\GPCE063A Example Code\DVR1800\Debug\SPI_Flash_CE063.obj"
F_SPI_Flash_Chip_Erase                                   C77F      "D:\WorkingFolder\Library_Release\SACMV41b_Beta\GPCE063A_Example_V41b\GPCE063A Example Code\DVR1800\Debug\SPI_Flash_CE063.obj"
_SPI_Read_Flash_ID                                       C79A      "D:\WorkingFolder\Library_Release\SACMV41b_Beta\GPCE063A_Example_V41b\GPCE063A Example Code\DVR1800\Debug\SPI_Flash_CE063.obj"
F_SPI_Read_Flash_ID                                      C79A      "D:\WorkingFolder\Library_Release\SACMV41b_Beta\GPCE063A_Example_V41b\GPCE063A Example Code\DVR1800\Debug\SPI_Flash_CE063.obj"
__RES_E316K_A18_sa                                       CCCA      "D:\WorkingFolder\Library_Release\SACMV41b_Beta\GPCE063A_Example_V41b\GPCE063A Example Code\DVR1800\Debug\e316k_a18.res"
__RES_E316K_A18_ea                                       FB85      "D:\WorkingFolder\Library_Release\SACMV41b_Beta\GPCE063A_Example_V41b\GPCE063A Example Code\DVR1800\Debug\e316k_a18.res"
***********************************************************************************************************************************************************************************************************************************************************************************************************

***********************************************************************************************************************************************************************************************************************************************************************************************************
*                             S E C T I O N     S U M M A R Y                                                                                                                                                                                                                                             *
***********************************************************************************************************************************************************************************************************************************************************************************************************
*     Section Name                                       Startting Address   Ending Address      Size                                                                                                                                                                                                     *
***********************************************************************************************************************************************************************************************************************************************************************************************************
* "C:\Program Files\Generalplus\unSPIDE 3.0.4\startupcode\startupD.obj"                                                                                                                                                                                                                                   *
*    DEBUG                                               ----                ----                ----                                                                                                                                                                                                     *
*    CODE                                                ----                ----                ----                                                                                                                                                                                                     *
*    DATA                                                ----                ----                ----                                                                                                                                                                                                     *
*    TEXT                                                ----                ----                ----                                                                                                                                                                                                     *
*    IRAM                                                ----                ----                ----                                                                                                                                                                                                     *
*    ISRAM                                               ----                ----                ----                                                                                                                                                                                                     *
*    RAM                                                 ----                ----                ----                                                                                                                                                                                                     *
*    SRAM                                                ----                ----                ----                                                                                                                                                                                                     *
*    ORAM                                                ----                ----                ----                                                                                                                                                                                                     *
*    OSRAM                                               ----                ----                ----                                                                                                                                                                                                     *
*    NB_DATA                                             ----                ----                ----                                                                                                                                                                                                     *
*    CTOR                                                ----                ----                ----                                                                                                                                                                                                     *
*    DTOR                                                ----                ----                ----                                                                                                                                                                                                     *
*    IM                                                  ----                ----                ----                                                                                                                                                                                                     *
*    LINKONCE                                            ----                ----                ----                                                                                                                                                                                                     *
*    VTBL                                                ----                ----                ----                                                                                                                                                                                                     *
*    NB_MERGE                                            ----                ----                ----                                                                                                                                                                                                     *
*    unSP_StartUp(TEXT)                                  8009                8025                1D                                                                                                                                                                                                       *
* "D:\WorkingFolder\Library_Release\SACMV41b_Beta\GPCE063A_Example_V41b\GPCE063A Example Code\DVR1800\Debug\Resource.obj"
*    DEBUG                                               ----                ----                ----                                                                                                                                                                                                     *
*    CODE                                                ----                ----                ----                                                                                                                                                                                                     *
*    DATA                                                ----                ----                ----                                                                                                                                                                                                     *
*    TEXT                                                8026                802A                5                                                                                                                                                                                                        *
*    IRAM                                                ----                ----                ----                                                                                                                                                                                                     *
*    ISRAM                                               ----                ----                ----                                                                                                                                                                                                     *
*    RAM                                                 ----                ----                ----                                                                                                                                                                                                     *
*    SRAM                                                ----                ----                ----                                                                                                                                                                                                     *
*    ORAM                                                ----                ----                ----                                                                                                                                                                                                     *
*    OSRAM                                               ----                ----                ----                                                                                                                                                                                                     *
*    NB_DATA                                             ----                ----                ----                                                                                                                                                                                                     *
*    CTOR                                                ----                ----                ----                                                                                                                                                                                                     *
*    DTOR                                                ----                ----                ----                                                                                                                                                                                                     *
*    IM                                                  ----                ----                ----                                                                                                                                                                                                     *
*    LINKONCE                                            ----                ----                ----                                                                                                                                                                                                     *
*    VTBL                                                ----                ----                ----                                                                                                                                                                                                     *
*    NB_MERGE                                            ----                ----                ----                                                                                                                                                                                                     *
*    RAM_BANK0                                           ----                ----                ----                                                                                                                                                                                                     *
*    IRAM_BANK0                                          ----                ----                ----                                                                                                                                                                                                     *
*    ORAM_BANK0                                          ----                ----                ----                                                                                                                                                                                                     *
* "D:\WorkingFolder\Library_Release\SACMV41b_Beta\GPCE063A_Example_V41b\GPCE063A Example Code\DVR1800\Debug\Isr.obj"
*    DEBUG                                               ----                ----                ----                                                                                                                                                                                                     *
*    CODE                                                ----                ----                ----                                                                                                                                                                                                     *
*    DATA                                                ----                ----                ----                                                                                                                                                                                                     *
*    TEXT                                                802B                8062                38                                                                                                                                                                                                       *
*    IRAM                                                ----                ----                ----                                                                                                                                                                                                     *
*    ISRAM                                               ----                ----                ----                                                                                                                                                                                                     *
*    RAM                                                 ----                ----                ----                                                                                                                                                                                                     *
*    SRAM                                                ----                ----                ----                                                                                                                                                                                                     *
*    ORAM                                                ----                ----                ----                                                                                                                                                                                                     *
*    OSRAM                                               ----                ----                ----                                                                                                                                                                                                     *
*    NB_DATA                                             ----                ----                ----                                                                                                                                                                                                     *
*    CTOR                                                ----                ----                ----                                                                                                                                                                                                     *
*    DTOR                                                ----                ----                ----                                                                                                                                                                                                     *
*    IM                                                  ----                ----                ----                                                                                                                                                                                                     *
*    LINKONCE                                            ----                ----                ----                                                                                                                                                                                                     *
*    VTBL                                                ----                ----                ----                                                                                                                                                                                                     *
*    NB_MERGE                                            ----                ----                ----                                                                                                                                                                                                     *
*    RAM_BANK0                                           ----                ----                ----                                                                                                                                                                                                     *
*    IRAM_BANK0                                          ----                ----                ----                                                                                                                                                                                                     *
*    ORAM_BANK0                                          ----                ----                ----                                                                                                                                                                                                     *
* "D:\WorkingFolder\Library_Release\SACMV41b_Beta\GPCE063A_Example_V41b\GPCE063A Example Code\DVR1800\Debug\main.obj"
*    DEBUG                                               ----                ----                ----                                                                                                                                                                                                     *
*    CODE                                                C956                CAB4                15F                                                                                                                                                                                                      *
*    DATA                                                ----                ----                ----                                                                                                                                                                                                     *
*    TEXT                                                ----                ----                ----                                                                                                                                                                                                     *
*    IRAM                                                CCC0(593)           CCC9(59C)           A                                                                                                                                                                                                        *
*    ISRAM                                               ----                ----                ----                                                                                                                                                                                                     *
*    RAM                                                 ----                ----                ----                                                                                                                                                                                                     *
*    SRAM                                                ----                ----                ----                                                                                                                                                                                                     *
*    ORAM                                                ----                ----                ----                                                                                                                                                                                                     *
*    OSRAM                                               ----                ----                ----                                                                                                                                                                                                     *
*    NB_DATA                                             ----                ----                ----                                                                                                                                                                                                     *
*    CTOR                                                ----                ----                ----                                                                                                                                                                                                     *
*    DTOR                                                ----                ----                ----                                                                                                                                                                                                     *
*    IM                                                  ----                ----                ----                                                                                                                                                                                                     *
*    LINKONCE                                            ----                ----                ----                                                                                                                                                                                                     *
*    VTBL                                                ----                ----                ----                                                                                                                                                                                                     *
*    NB_MERGE                                            ----                ----                ----                                                                                                                                                                                                     *
*    RAM_BANK0                                           ----                ----                ----                                                                                                                                                                                                     *
*    IRAM_BANK0                                          ----                ----                ----                                                                                                                                                                                                     *
*    ORAM_BANK0                                          ----                ----                ----                                                                                                                                                                                                     *
* "D:\WorkingFolder\Library_Release\SACMV41b_Beta\GPCE063A_Example_V41b\GPCE063A Example Code\DVR1800\Debug\System.obj"
*    DEBUG                                               ----                ----                ----                                                                                                                                                                                                     *
*    CODE                                                CB7E                CC40                C3                                                                                                                                                                                                       *
*    DATA                                                ----                ----                ----                                                                                                                                                                                                     *
*    TEXT                                                ----                ----                ----                                                                                                                                                                                                     *
*    IRAM                                                ----                ----                ----                                                                                                                                                                                                     *
*    ISRAM                                               ----                ----                ----                                                                                                                                                                                                     *
*    RAM                                                 58B                 58E                 4                                                                                                                                                                                                        *
*    SRAM                                                ----                ----                ----                                                                                                                                                                                                     *
*    ORAM                                                ----                ----                ----                                                                                                                                                                                                     *
*    OSRAM                                               ----                ----                ----                                                                                                                                                                                                     *
*    NB_DATA                                             ----                ----                ----                                                                                                                                                                                                     *
*    CTOR                                                ----                ----                ----                                                                                                                                                                                                     *
*    DTOR                                                ----                ----                ----                                                                                                                                                                                                     *
*    IM                                                  ----                ----                ----                                                                                                                                                                                                     *
*    LINKONCE                                            ----                ----                ----                                                                                                                                                                                                     *
*    VTBL                                                ----                ----                ----                                                                                                                                                                                                     *
*    NB_MERGE                                            ----                ----                ----                                                                                                                                                                                                     *
*    RAM_BANK0                                           ----                ----                ----                                                                                                                                                                                                     *
*    IRAM_BANK0                                          ----                ----                ----                                                                                                                                                                                                     *
*    ORAM_BANK0                                          ----                ----                ----                                                                                                                                                                                                     *
* "D:\WorkingFolder\Library_Release\SACMV41b_Beta\GPCE063A_Example_V41b\GPCE063A Example Code\DVR1800\Debug\SACM_DVR1800_User.obj"
*    DEBUG                                               ----                ----                ----                                                                                                                                                                                                     *
*    CODE                                                CAB5                CB7D                C9                                                                                                                                                                                                       *
*    DATA                                                ----                ----                ----                                                                                                                                                                                                     *
*    TEXT                                                8063                8072                10                                                                                                                                                                                                       *
*    IRAM                                                ----                ----                ----                                                                                                                                                                                                     *
*    ISRAM                                               ----                ----                ----                                                                                                                                                                                                     *
*    RAM                                                 58F                 592                 4                                                                                                                                                                                                        *
*    SRAM                                                ----                ----                ----                                                                                                                                                                                                     *
*    ORAM                                                ----                ----                ----                                                                                                                                                                                                     *
*    OSRAM                                               ----                ----                ----                                                                                                                                                                                                     *
*    NB_DATA                                             ----                ----                ----                                                                                                                                                                                                     *
*    CTOR                                                ----                ----                ----                                                                                                                                                                                                     *
*    DTOR                                                ----                ----                ----                                                                                                                                                                                                     *
*    IM                                                  ----                ----                ----                                                                                                                                                                                                     *
*    LINKONCE                                            ----                ----                ----                                                                                                                                                                                                     *
*    VTBL                                                ----                ----                ----                                                                                                                                                                                                     *
*    NB_MERGE                                            ----                ----                ----                                                                                                                                                                                                     *
*    RAM_BANK0                                           ----                ----                ----                                                                                                                                                                                                     *
*    IRAM_BANK0                                          ----                ----                ----                                                                                                                                                                                                     *
*    ORAM_BANK0                                          ----                ----                ----                                                                                                                                                                                                     *
* "D:\WorkingFolder\Library_Release\SACMV41b_Beta\GPCE063A_Example_V41b\GPCE063A Example Code\DVR1800\Debug\SPI_Flash_CE063.obj"
*    DEBUG                                               ----                ----                ----                                                                                                                                                                                                     *
*    CODE                                                C5B8                C7BB                204                                                                                                                                                                                                      *
*    DATA                                                ----                ----                ----                                                                                                                                                                                                     *
*    TEXT                                                ----                ----                ----                                                                                                                                                                                                     *
*    IRAM                                                ----                ----                ----                                                                                                                                                                                                     *
*    ISRAM                                               ----                ----                ----                                                                                                                                                                                                     *
*    RAM                                                 ----                ----                ----                                                                                                                                                                                                     *
*    SRAM                                                ----                ----                ----                                                                                                                                                                                                     *
*    ORAM                                                ----                ----                ----                                                                                                                                                                                                     *
*    OSRAM                                               ----                ----                ----                                                                                                                                                                                                     *
*    NB_DATA                                             ----                ----                ----                                                                                                                                                                                                     *
*    CTOR                                                ----                ----                ----                                                                                                                                                                                                     *
*    DTOR                                                ----                ----                ----                                                                                                                                                                                                     *
*    IM                                                  ----                ----                ----                                                                                                                                                                                                     *
*    LINKONCE                                            ----                ----                ----                                                                                                                                                                                                     *
*    VTBL                                                ----                ----                ----                                                                                                                                                                                                     *
*    NB_MERGE                                            ----                ----                ----                                                                                                                                                                                                     *
*    RAM_BANK0                                           ----                ----                ----                                                                                                                                                                                                     *
*    IRAM_BANK0                                          ----                ----                ----                                                                                                                                                                                                     *
*    ORAM_BANK0                                          ----                ----                ----                                                                                                                                                                                                     *
* "D:\WorkingFolder\Library_Release\SACMV41b_Beta\GPCE063A_Example_V41b\GPCE063A Example Code\DVR1800\Debug\e316k_a18.res"
*    __sn_section_RES_E316K_A18(DATA)                    CCCA                FB84                2EBB                                                                                                                                                                                                     *
* "D:\WorkingFolder\Library_Source\SACM_V41b\LibMaker\DVR1800\SACM_DVR1800_API"                                                                                                                                                                                                                           *
*    DEBUG                                               ----                ----                ----                                                                                                                                                                                                     *
*    CODE                                                CC41                CCBF                7F                                                                                                                                                                                                       *
*    DATA                                                ----                ----                ----                                                                                                                                                                                                     *
*    TEXT                                                8073                8212                1A0                                                                                                                                                                                                      *
*    IRAM                                                ----                ----                ----                                                                                                                                                                                                     *
*    ISRAM                                               ----                ----                ----                                                                                                                                                                                                     *
*    RAM                                                 ----                ----                ----                                                                                                                                                                                                     *
*    SRAM                                                ----                ----                ----                                                                                                                                                                                                     *
*    ORAM                                                ----                ----                ----                                                                                                                                                                                                     *
*    OSRAM                                               ----                ----                ----                                                                                                                                                                                                     *
*    NB_DATA                                             ----                ----                ----                                                                                                                                                                                                     *
*    CTOR                                                ----                ----                ----                                                                                                                                                                                                     *
*    DTOR                                                ----                ----                ----                                                                                                                                                                                                     *
*    IM                                                  ----                ----                ----                                                                                                                                                                                                     *
*    LINKONCE                                            ----                ----                ----                                                                                                                                                                                                     *
*    VTBL                                                ----                ----                ----                                                                                                                                                                                                     *
*    NB_MERGE                                            ----                ----                ----                                                                                                                                                                                                     *
*    RAM_BANK0                                           ----                ----                ----                                                                                                                                                                                                     *
*    IRAM_BANK0                                          ----                ----                ----                                                                                                                                                                                                     *
*    ORAM_BANK0                                          ----                ----                ----                                                                                                                                                                                                     *
*    OVERLAP_DVR1800_API_BLOCK(ORAM)                     1                   39                  39                                                                                                                                                                                                       *
*    SACM_DVR1800_ROM_BLOCK(CODE)                        C36F                C5B7                249                                                                                                                                                                                                      *
* "D:\WorkingFolder\Library_Source\SACM_V41b\LibMaker\DVR1800\SACM_DVR1800_Decode"                                                                                                                                                                                                                        *
*    DEBUG                                               ----                ----                ----                                                                                                                                                                                                     *
*    CODE                                                ----                ----                ----                                                                                                                                                                                                     *
*    DATA                                                ----                ----                ----                                                                                                                                                                                                     *
*    TEXT                                                8213                821A                8                                                                                                                                                                                                        *
*    IRAM                                                ----                ----                ----                                                                                                                                                                                                     *
*    ISRAM                                               ----                ----                ----                                                                                                                                                                                                     *
*    RAM                                                 ----                ----                ----                                                                                                                                                                                                     *
*    SRAM                                                ----                ----                ----                                                                                                                                                                                                     *
*    ORAM                                                ----                ----                ----                                                                                                                                                                                                     *
*    OSRAM                                               ----                ----                ----                                                                                                                                                                                                     *
*    NB_DATA                                             ----                ----                ----                                                                                                                                                                                                     *
*    CTOR                                                ----                ----                ----                                                                                                                                                                                                     *
*    DTOR                                                ----                ----                ----                                                                                                                                                                                                     *
*    IM                                                  ----                ----                ----                                                                                                                                                                                                     *
*    LINKONCE                                            ----                ----                ----                                                                                                                                                                                                     *
*    VTBL                                                ----                ----                ----                                                                                                                                                                                                     *
*    NB_MERGE                                            ----                ----                ----                                                                                                                                                                                                     *
*    RAM_BANK0                                           ----                ----                ----                                                                                                                                                                                                     *
*    IRAM_BANK0                                          ----                ----                ----                                                                                                                                                                                                     *
*    ORAM_BANK0                                          ----                ----                ----                                                                                                                                                                                                     *
*    OVERLAP_DVR1800_RAM_BLOCK(ORAM)                     3A                  2FE                 2C5                                                                                                                                                                                                      *
*    SACM_DVR1800_DECODE_ROM_BLOCK(CODE)                 C7BC                C955                19A                                                                                                                                                                                                      *
* "E:\Project\CP183\DVR180~1.4\Debug\DVR180~1"                                                                                                                                                                                                                                                            *
*    DEBUG                                               ----                ----                ----                                                                                                                                                                                                     *
*    CODE                                                ----                ----                ----                                                                                                                                                                                                     *
*    DATA                                                ----                ----                ----                                                                                                                                                                                                     *
*    TEXT                                                ----                ----                ----                                                                                                                                                                                                     *
*    IRAM                                                ----                ----                ----                                                                                                                                                                                                     *
*    ISRAM                                               ----                ----                ----                                                                                                                                                                                                     *
*    RAM                                                 ----                ----                ----                                                                                                                                                                                                     *
*    SRAM                                                ----                ----                ----                                                                                                                                                                                                     *
*    ORAM                                                ----                ----                ----                                                                                                                                                                                                     *
*    OSRAM                                               ----                ----                ----                                                                                                                                                                                                     *
*    NB_DATA                                             ----                ----                ----                                                                                                                                                                                                     *
*    CTOR                                                ----                ----                ----                                                                                                                                                                                                     *
*    DTOR                                                ----                ----                ----                                                                                                                                                                                                     *
*    IM                                                  ----                ----                ----                                                                                                                                                                                                     *
*    LINKONCE                                            ----                ----                ----                                                                                                                                                                                                     *
*    VTBL                                                ----                ----                ----                                                                                                                                                                                                     *
*    NB_MERGE                                            ----                ----                ----                                                                                                                                                                                                     *
*    RAM_BANK0                                           ----                ----                ----                                                                                                                                                                                                     *
*    IRAM_BANK0                                          ----                ----                ----                                                                                                                                                                                                     *
*    ORAM_BANK0                                          ----                ----                ----                                                                                                                                                                                                     *
*    SACM_DVR1800_IM_BLOCK(CODE)                         ADE1                C36E                158E                                                                                                                                                                                                     *
*    OVERLAP_DVR1800_DM_BLOCK(ORAM)                      2FF                 58A                 28C                                                                                                                                                                                                      *
*    SACM_DVR1800_PM_BLOCK(TEXT)                         821B                ADE0                2BC6                                                                                                                                                                                                     *
* "Init Table"                                           8000                8008                9                                                                                                                                                                                                        *
***********************************************************************************************************************************************************************************************************************************************************************************************************

***********************************************************************************************************************************************************************************************************************************************************************************************************
*                             M E M O R Y     S U M M A R Y                                                                                                                                                                                                                                               *
***********************************************************************************************************************************************************************************************************************************************************************************************************
*     Type                          Total               Using        Remain                                                                                                                                                                                                                               *
***********************************************************************************************************************************************************************************************************************************************************************************************************
* "SRam/OSRam/ISRam"                40                   0            40                                                                                                                                                                                                                                  *
* "Ram"                             800                  59D          263                                                                                                                                                                                                                                 *
* "First Bank Rom"                  7C00                 7B85         7B                                                                                                                                                                                                                                  *
* "Other Banks Rom"                 0                    0            0                                                                                                                                                                                                                                   *
***********************************************************************************************************************************************************************************************************************************************************************************************************

Linker Output Filename : D:\WorkingFolder\Library_Release\SACMV41b_Beta\GPCE063A_Example_V41b\GPCE063A Example Code\DVR1800\Debug\SACM_DVR1800.S37
Disk  Mapping Filename : D:\WorkingFolder\Library_Release\SACMV41b_Beta\GPCE063A_Example_V41b\GPCE063A Example Code\DVR1800\Debug\SACM_DVR1800.map
Symbol  Table FileName : D:\WorkingFolder\Library_Release\SACMV41b_Beta\GPCE063A_Example_V41b\GPCE063A Example Code\DVR1800\Debug\SACM_DVR1800.sym
Format :                 Microtek

Linker Errors :          0
Output Format :          S37
