Thursday, January 08, 09:32:14, 2009

                    Generalplus u'nSP Linker version 1.14.13.6 (enc)
                    -------------------------------------------

Global Symbol Name                                Global Value     Global Filename
***********************************************************************************************************************************************************************************************************************************************************************************************************
_RESET                                                   8009      "C:\Program Files\Generalplus\unSPIDE 3.0.4\startupcode\startupD.obj"
__sn_loop                                                8025      "C:\Program Files\Generalplus\unSPIDE 3.0.4\startupcode\startupD.obj"
__sn_loop2                                               8024      "C:\Program Files\Generalplus\unSPIDE 3.0.4\startupcode\startupD.obj"
__sn_init_table                                          8000      "Linker internal symbol"
__sn_sp_val                                              7FF       "Linker internal symbol"
_RES_Table                                               8026      "D:\WorkingFolder\Library_Release\SACMV41b_Beta\GPCE063A_Example_V41b\GPCE063A Example Code\DVR1600\Debug\Resource.obj"
_RES_T09_A_A16_SA                                        8026      "D:\WorkingFolder\Library_Release\SACMV41b_Beta\GPCE063A_Example_V41b\GPCE063A Example Code\DVR1600\Debug\Resource.obj"
_RES_T09_A_A16_EA                                        8028      "D:\WorkingFolder\Library_Release\SACMV41b_Beta\GPCE063A_Example_V41b\GPCE063A Example Code\DVR1600\Debug\Resource.obj"
_RES_T09_B_A16_SA                                        802A      "D:\WorkingFolder\Library_Release\SACMV41b_Beta\GPCE063A_Example_V41b\GPCE063A Example Code\DVR1600\Debug\Resource.obj"
_RES_T09_B_A16_EA                                        802C      "D:\WorkingFolder\Library_Release\SACMV41b_Beta\GPCE063A_Example_V41b\GPCE063A Example Code\DVR1600\Debug\Resource.obj"
_RES_T09_C_A16_SA                                        802E      "D:\WorkingFolder\Library_Release\SACMV41b_Beta\GPCE063A_Example_V41b\GPCE063A Example Code\DVR1600\Debug\Resource.obj"
_RES_T09_C_A16_EA                                        8030      "D:\WorkingFolder\Library_Release\SACMV41b_Beta\GPCE063A_Example_V41b\GPCE063A Example Code\DVR1600\Debug\Resource.obj"
T_SACM_DVR1600_SpeechTable                               8032      "D:\WorkingFolder\Library_Release\SACMV41b_Beta\GPCE063A_Example_V41b\GPCE063A Example Code\DVR1600\Debug\Resource.obj"
_BREAK                                                   8052      "D:\WorkingFolder\Library_Release\SACMV41b_Beta\GPCE063A_Example_V41b\GPCE063A Example Code\DVR1600\Debug\Isr.obj"
_FIQ                                                     8035      "D:\WorkingFolder\Library_Release\SACMV41b_Beta\GPCE063A_Example_V41b\GPCE063A Example Code\DVR1600\Debug\Isr.obj"
_IRQ0                                                    8055      "D:\WorkingFolder\Library_Release\SACMV41b_Beta\GPCE063A_Example_V41b\GPCE063A Example Code\DVR1600\Debug\Isr.obj"
_IRQ1                                                    8058      "D:\WorkingFolder\Library_Release\SACMV41b_Beta\GPCE063A_Example_V41b\GPCE063A Example Code\DVR1600\Debug\Isr.obj"
_IRQ2                                                    805B      "D:\WorkingFolder\Library_Release\SACMV41b_Beta\GPCE063A_Example_V41b\GPCE063A Example Code\DVR1600\Debug\Isr.obj"
_IRQ3                                                    805E      "D:\WorkingFolder\Library_Release\SACMV41b_Beta\GPCE063A_Example_V41b\GPCE063A Example Code\DVR1600\Debug\Isr.obj"
_IRQ4                                                    8061      "D:\WorkingFolder\Library_Release\SACMV41b_Beta\GPCE063A_Example_V41b\GPCE063A Example Code\DVR1600\Debug\Isr.obj"
_IRQ5                                                    8064      "D:\WorkingFolder\Library_Release\SACMV41b_Beta\GPCE063A_Example_V41b\GPCE063A Example Code\DVR1600\Debug\Isr.obj"
_IRQ6                                                    8067      "D:\WorkingFolder\Library_Release\SACMV41b_Beta\GPCE063A_Example_V41b\GPCE063A Example Code\DVR1600\Debug\Isr.obj"
_IRQ7                                                    806A      "D:\WorkingFolder\Library_Release\SACMV41b_Beta\GPCE063A_Example_V41b\GPCE063A Example Code\DVR1600\Debug\Isr.obj"
_main                                                    9507      "D:\WorkingFolder\Library_Release\SACMV41b_Beta\GPCE063A_Example_V41b\GPCE063A Example Code\DVR1600\Debug\main.obj"
_Key                                                     210       "D:\WorkingFolder\Library_Release\SACMV41b_Beta\GPCE063A_Example_V41b\GPCE063A Example Code\DVR1600\Debug\main.obj"
_SpeechIndex                                             211       "D:\WorkingFolder\Library_Release\SACMV41b_Beta\GPCE063A_Example_V41b\GPCE063A Example Code\DVR1600\Debug\main.obj"
_VolumeIndex                                             212       "D:\WorkingFolder\Library_Release\SACMV41b_Beta\GPCE063A_Example_V41b\GPCE063A Example Code\DVR1600\Debug\main.obj"
_BitRate                                                 213       "D:\WorkingFolder\Library_Release\SACMV41b_Beta\GPCE063A_Example_V41b\GPCE063A Example Code\DVR1600\Debug\main.obj"
_ADC_Channel                                             214       "D:\WorkingFolder\Library_Release\SACMV41b_Beta\GPCE063A_Example_V41b\GPCE063A Example Code\DVR1600\Debug\main.obj"
_ADC_FIR_Type                                            215       "D:\WorkingFolder\Library_Release\SACMV41b_Beta\GPCE063A_Example_V41b\GPCE063A Example Code\DVR1600\Debug\main.obj"
_DAC_FIR_Type                                            216       "D:\WorkingFolder\Library_Release\SACMV41b_Beta\GPCE063A_Example_V41b\GPCE063A Example Code\DVR1600\Debug\main.obj"
_PauseFlag                                               217       "D:\WorkingFolder\Library_Release\SACMV41b_Beta\GPCE063A_Example_V41b\GPCE063A Example Code\DVR1600\Debug\main.obj"
_PlayCon                                                 218       "D:\WorkingFolder\Library_Release\SACMV41b_Beta\GPCE063A_Example_V41b\GPCE063A Example Code\DVR1600\Debug\main.obj"
_Mode                                                    219       "D:\WorkingFolder\Library_Release\SACMV41b_Beta\GPCE063A_Example_V41b\GPCE063A Example Code\DVR1600\Debug\main.obj"
_System_Initial                                          9750      "D:\WorkingFolder\Library_Release\SACMV41b_Beta\GPCE063A_Example_V41b\GPCE063A Example Code\DVR1600\Debug\System.obj"
F_System_Initial                                         9750      "D:\WorkingFolder\Library_Release\SACMV41b_Beta\GPCE063A_Example_V41b\GPCE063A Example Code\DVR1600\Debug\System.obj"
_System_ServiceLoop                                      9772      "D:\WorkingFolder\Library_Release\SACMV41b_Beta\GPCE063A_Example_V41b\GPCE063A Example Code\DVR1600\Debug\System.obj"
F_System_ServiceLoop                                     9772      "D:\WorkingFolder\Library_Release\SACMV41b_Beta\GPCE063A_Example_V41b\GPCE063A Example Code\DVR1600\Debug\System.obj"
_WatchdogClear                                           976D      "D:\WorkingFolder\Library_Release\SACMV41b_Beta\GPCE063A_Example_V41b\GPCE063A Example Code\DVR1600\Debug\System.obj"
F_WatchdogClear                                          976D      "D:\WorkingFolder\Library_Release\SACMV41b_Beta\GPCE063A_Example_V41b\GPCE063A Example Code\DVR1600\Debug\System.obj"
_SP_GetCh                                                97AC      "D:\WorkingFolder\Library_Release\SACMV41b_Beta\GPCE063A_Example_V41b\GPCE063A Example Code\DVR1600\Debug\System.obj"
F_SP_GetCh                                               97AC      "D:\WorkingFolder\Library_Release\SACMV41b_Beta\GPCE063A_Example_V41b\GPCE063A Example Code\DVR1600\Debug\System.obj"
_SP_SwitchChannel                                        9734      "D:\WorkingFolder\Library_Release\SACMV41b_Beta\GPCE063A_Example_V41b\GPCE063A Example Code\DVR1600\Debug\System.obj"
F_SP_SwitchChannel                                       9737      "D:\WorkingFolder\Library_Release\SACMV41b_Beta\GPCE063A_Example_V41b\GPCE063A Example Code\DVR1600\Debug\System.obj"
_SP_RampUpDAC1                                           97D2      "D:\WorkingFolder\Library_Release\SACMV41b_Beta\GPCE063A_Example_V41b\GPCE063A Example Code\DVR1600\Debug\System.obj"
F_SP_RampUpDAC1                                          97D2      "D:\WorkingFolder\Library_Release\SACMV41b_Beta\GPCE063A_Example_V41b\GPCE063A Example Code\DVR1600\Debug\System.obj"
_SP_RampDnDAC1                                           97B2      "D:\WorkingFolder\Library_Release\SACMV41b_Beta\GPCE063A_Example_V41b\GPCE063A Example Code\DVR1600\Debug\System.obj"
F_SP_RampDnDAC1                                          97B2      "D:\WorkingFolder\Library_Release\SACMV41b_Beta\GPCE063A_Example_V41b\GPCE063A Example Code\DVR1600\Debug\System.obj"
_SP_RampUpDAC2                                           97EF      "D:\WorkingFolder\Library_Release\SACMV41b_Beta\GPCE063A_Example_V41b\GPCE063A Example Code\DVR1600\Debug\System.obj"
F_SP_RampUpDAC2                                          97EF      "D:\WorkingFolder\Library_Release\SACMV41b_Beta\GPCE063A_Example_V41b\GPCE063A Example Code\DVR1600\Debug\System.obj"
_SP_RampDnDAC2                                           97CF      "D:\WorkingFolder\Library_Release\SACMV41b_Beta\GPCE063A_Example_V41b\GPCE063A Example Code\DVR1600\Debug\System.obj"
F_SP_RampDnDAC2                                          97CF      "D:\WorkingFolder\Library_Release\SACMV41b_Beta\GPCE063A_Example_V41b\GPCE063A Example Code\DVR1600\Debug\System.obj"
_USER_DVR1600_SetStartAddr                               96C9      "D:\WorkingFolder\Library_Release\SACMV41b_Beta\GPCE063A_Example_V41b\GPCE063A Example Code\DVR1600\Debug\SACM_DVR1600_User.obj"
F_USER_DVR1600_SetStartAddr                              96CD      "D:\WorkingFolder\Library_Release\SACMV41b_Beta\GPCE063A_Example_V41b\GPCE063A Example Code\DVR1600\Debug\SACM_DVR1600_User.obj"
_USER_DVR1600_SetStartAddr_Con                           96E4      "D:\WorkingFolder\Library_Release\SACMV41b_Beta\GPCE063A_Example_V41b\GPCE063A Example Code\DVR1600\Debug\SACM_DVR1600_User.obj"
F_USER_DVR1600_SetStartAddr_Con                          96E7      "D:\WorkingFolder\Library_Release\SACMV41b_Beta\GPCE063A_Example_V41b\GPCE063A Example Code\DVR1600\Debug\SACM_DVR1600_User.obj"
F_USER_DVR1600_GetData                                   96FF      "D:\WorkingFolder\Library_Release\SACMV41b_Beta\GPCE063A_Example_V41b\GPCE063A Example Code\DVR1600\Debug\SACM_DVR1600_User.obj"
F_USER_DVR1600_WriteData                                 9727      "D:\WorkingFolder\Library_Release\SACMV41b_Beta\GPCE063A_Example_V41b\GPCE063A Example Code\DVR1600\Debug\SACM_DVR1600_User.obj"
_USER_DVR1600_Volume                                     968A      "D:\WorkingFolder\Library_Release\SACMV41b_Beta\GPCE063A_Example_V41b\GPCE063A Example Code\DVR1600\Debug\SACM_DVR1600_User.obj"
F_USER_DVR1600_Volume                                    968D      "D:\WorkingFolder\Library_Release\SACMV41b_Beta\GPCE063A_Example_V41b\GPCE063A Example Code\DVR1600\Debug\SACM_DVR1600_User.obj"
F_SACM_DVR1600_SendDAC1                                  96B3      "D:\WorkingFolder\Library_Release\SACMV41b_Beta\GPCE063A_Example_V41b\GPCE063A Example Code\DVR1600\Debug\SACM_DVR1600_User.obj"
F_SACM_DVR1600_SendDAC2                                  96B6      "D:\WorkingFolder\Library_Release\SACMV41b_Beta\GPCE063A_Example_V41b\GPCE063A Example Code\DVR1600\Debug\SACM_DVR1600_User.obj"
F_SACM_DVR1600_GetADC                                    96B0      "D:\WorkingFolder\Library_Release\SACMV41b_Beta\GPCE063A_Example_V41b\GPCE063A Example Code\DVR1600\Debug\SACM_DVR1600_User.obj"
F_SACM_DVR1600_StartPlay                                 96B7      "D:\WorkingFolder\Library_Release\SACMV41b_Beta\GPCE063A_Example_V41b\GPCE063A Example Code\DVR1600\Debug\SACM_DVR1600_User.obj"
F_SACM_DVR1600_EndPlay                                   96B9      "D:\WorkingFolder\Library_Release\SACMV41b_Beta\GPCE063A_Example_V41b\GPCE063A Example Code\DVR1600\Debug\SACM_DVR1600_User.obj"
F_SACM_DVR1600_StartRecord                               96BB      "D:\WorkingFolder\Library_Release\SACMV41b_Beta\GPCE063A_Example_V41b\GPCE063A Example Code\DVR1600\Debug\SACM_DVR1600_User.obj"
F_SACM_DVR1600_EndRecord                                 96BD      "D:\WorkingFolder\Library_Release\SACMV41b_Beta\GPCE063A_Example_V41b\GPCE063A Example Code\DVR1600\Debug\SACM_DVR1600_User.obj"
F_SACM_DVR1600_Init_                                     966B      "D:\WorkingFolder\Library_Release\SACMV41b_Beta\GPCE063A_Example_V41b\GPCE063A Example Code\DVR1600\Debug\SACM_DVR1600_User.obj"
F_SACM_DVR1600_DAC_Timer_X1                              9693      "D:\WorkingFolder\Library_Release\SACMV41b_Beta\GPCE063A_Example_V41b\GPCE063A Example Code\DVR1600\Debug\SACM_DVR1600_User.obj"
F_SACM_DVR1600_DAC_Timer_X2                              9698      "D:\WorkingFolder\Library_Release\SACMV41b_Beta\GPCE063A_Example_V41b\GPCE063A Example Code\DVR1600\Debug\SACM_DVR1600_User.obj"
F_SACM_DVR1600_ADC_Timer_X1                              969F      "D:\WorkingFolder\Library_Release\SACMV41b_Beta\GPCE063A_Example_V41b\GPCE063A Example Code\DVR1600\Debug\SACM_DVR1600_User.obj"
F_SACM_DVR1600_ADC_Timer_X2                              96A4      "D:\WorkingFolder\Library_Release\SACMV41b_Beta\GPCE063A_Example_V41b\GPCE063A Example Code\DVR1600\Debug\SACM_DVR1600_User.obj"
F_SACM_DVR1600_ADC_Timer_X4                              96A9      "D:\WorkingFolder\Library_Release\SACMV41b_Beta\GPCE063A_Example_V41b\GPCE063A Example Code\DVR1600\Debug\SACM_DVR1600_User.obj"
F_SACM_DVR1600_GetStartAddr_Con                          96F6      "D:\WorkingFolder\Library_Release\SACMV41b_Beta\GPCE063A_Example_V41b\GPCE063A Example Code\DVR1600\Debug\SACM_DVR1600_User.obj"
_SPI_Initial                                             8FA6      "D:\WorkingFolder\Library_Release\SACMV41b_Beta\GPCE063A_Example_V41b\GPCE063A Example Code\DVR1600\Debug\SPI_Flash_CE063.obj"
F_SPI_Initial                                            8FA6      "D:\WorkingFolder\Library_Release\SACMV41b_Beta\GPCE063A_Example_V41b\GPCE063A Example Code\DVR1600\Debug\SPI_Flash_CE063.obj"
_SPI_ReadAWord                                           8FEC      "D:\WorkingFolder\Library_Release\SACMV41b_Beta\GPCE063A_Example_V41b\GPCE063A Example Code\DVR1600\Debug\SPI_Flash_CE063.obj"
F_SPI_ReadAWord                                          8FF0      "D:\WorkingFolder\Library_Release\SACMV41b_Beta\GPCE063A_Example_V41b\GPCE063A Example Code\DVR1600\Debug\SPI_Flash_CE063.obj"
_SPI_ReadNWords                                          9021      "D:\WorkingFolder\Library_Release\SACMV41b_Beta\GPCE063A_Example_V41b\GPCE063A Example Code\DVR1600\Debug\SPI_Flash_CE063.obj"
F_SPI_ReadNWords                                         9027      "D:\WorkingFolder\Library_Release\SACMV41b_Beta\GPCE063A_Example_V41b\GPCE063A Example Code\DVR1600\Debug\SPI_Flash_CE063.obj"
_SPI_SendAWord                                           905B      "D:\WorkingFolder\Library_Release\SACMV41b_Beta\GPCE063A_Example_V41b\GPCE063A Example Code\DVR1600\Debug\SPI_Flash_CE063.obj"
F_SPI_SendAWord                                          9060      "D:\WorkingFolder\Library_Release\SACMV41b_Beta\GPCE063A_Example_V41b\GPCE063A Example Code\DVR1600\Debug\SPI_Flash_CE063.obj"
_SPI_SendNWords                                          9092      "D:\WorkingFolder\Library_Release\SACMV41b_Beta\GPCE063A_Example_V41b\GPCE063A Example Code\DVR1600\Debug\SPI_Flash_CE063.obj"
F_SPI_SendNWords                                         9098      "D:\WorkingFolder\Library_Release\SACMV41b_Beta\GPCE063A_Example_V41b\GPCE063A Example Code\DVR1600\Debug\SPI_Flash_CE063.obj"
_Flash_Write_Enable                                      90E0      "D:\WorkingFolder\Library_Release\SACMV41b_Beta\GPCE063A_Example_V41b\GPCE063A Example Code\DVR1600\Debug\SPI_Flash_CE063.obj"
F_Flash_Write_Enable                                     90E0      "D:\WorkingFolder\Library_Release\SACMV41b_Beta\GPCE063A_Example_V41b\GPCE063A Example Code\DVR1600\Debug\SPI_Flash_CE063.obj"
_Flash_Write_Disable                                     90F3      "D:\WorkingFolder\Library_Release\SACMV41b_Beta\GPCE063A_Example_V41b\GPCE063A Example Code\DVR1600\Debug\SPI_Flash_CE063.obj"
F_Flash_Write_Disable                                    90F3      "D:\WorkingFolder\Library_Release\SACMV41b_Beta\GPCE063A_Example_V41b\GPCE063A Example Code\DVR1600\Debug\SPI_Flash_CE063.obj"
_SPI_Read_Status_Register                                9103      "D:\WorkingFolder\Library_Release\SACMV41b_Beta\GPCE063A_Example_V41b\GPCE063A Example Code\DVR1600\Debug\SPI_Flash_CE063.obj"
F_SPI_Read_Status_Register                               9103      "D:\WorkingFolder\Library_Release\SACMV41b_Beta\GPCE063A_Example_V41b\GPCE063A Example Code\DVR1600\Debug\SPI_Flash_CE063.obj"
_SPI_Enable_Write_Status_Registe                         9116      "D:\WorkingFolder\Library_Release\SACMV41b_Beta\GPCE063A_Example_V41b\GPCE063A Example Code\DVR1600\Debug\SPI_Flash_CE063.obj"
F_SPI_Enable_Write_Status_Regist                         9116      "D:\WorkingFolder\Library_Release\SACMV41b_Beta\GPCE063A_Example_V41b\GPCE063A Example Code\DVR1600\Debug\SPI_Flash_CE063.obj"
_SPI_Write_Status_Register                               9126      "D:\WorkingFolder\Library_Release\SACMV41b_Beta\GPCE063A_Example_V41b\GPCE063A Example Code\DVR1600\Debug\SPI_Flash_CE063.obj"
F_SPI_Write_Status_Register                              9129      "D:\WorkingFolder\Library_Release\SACMV41b_Beta\GPCE063A_Example_V41b\GPCE063A Example Code\DVR1600\Debug\SPI_Flash_CE063.obj"
_SPI_Flash_Sector_Erase                                  913D      "D:\WorkingFolder\Library_Release\SACMV41b_Beta\GPCE063A_Example_V41b\GPCE063A Example Code\DVR1600\Debug\SPI_Flash_CE063.obj"
F_SPI_Flash_Sector_Erase                                 9140      "D:\WorkingFolder\Library_Release\SACMV41b_Beta\GPCE063A_Example_V41b\GPCE063A Example Code\DVR1600\Debug\SPI_Flash_CE063.obj"
_SPI_Flash_Chip_Erase                                    916D      "D:\WorkingFolder\Library_Release\SACMV41b_Beta\GPCE063A_Example_V41b\GPCE063A Example Code\DVR1600\Debug\SPI_Flash_CE063.obj"
F_SPI_Flash_Chip_Erase                                   916D      "D:\WorkingFolder\Library_Release\SACMV41b_Beta\GPCE063A_Example_V41b\GPCE063A Example Code\DVR1600\Debug\SPI_Flash_CE063.obj"
_SPI_Read_Flash_ID                                       9188      "D:\WorkingFolder\Library_Release\SACMV41b_Beta\GPCE063A_Example_V41b\GPCE063A Example Code\DVR1600\Debug\SPI_Flash_CE063.obj"
F_SPI_Read_Flash_ID                                      9188      "D:\WorkingFolder\Library_Release\SACMV41b_Beta\GPCE063A_Example_V41b\GPCE063A Example Code\DVR1600\Debug\SPI_Flash_CE063.obj"
__RES_T09_A_A16_sa                                       987F      "D:\WorkingFolder\Library_Release\SACMV41b_Beta\GPCE063A_Example_V41b\GPCE063A Example Code\DVR1600\Debug\t09_a_a16.res"
__RES_T09_A_A16_ea                                       A172      "D:\WorkingFolder\Library_Release\SACMV41b_Beta\GPCE063A_Example_V41b\GPCE063A Example Code\DVR1600\Debug\t09_a_a16.res"
__RES_T09_B_A16_sa                                       A172      "D:\WorkingFolder\Library_Release\SACMV41b_Beta\GPCE063A_Example_V41b\GPCE063A Example Code\DVR1600\Debug\t09_b_a16.res"
__RES_T09_B_A16_ea                                       AA45      "D:\WorkingFolder\Library_Release\SACMV41b_Beta\GPCE063A_Example_V41b\GPCE063A Example Code\DVR1600\Debug\t09_b_a16.res"
__RES_T09_C_A16_sa                                       AA45      "D:\WorkingFolder\Library_Release\SACMV41b_Beta\GPCE063A_Example_V41b\GPCE063A Example Code\DVR1600\Debug\t09_c_a16.res"
__RES_T09_C_A16_ea                                       B258      "D:\WorkingFolder\Library_Release\SACMV41b_Beta\GPCE063A_Example_V41b\GPCE063A Example Code\DVR1600\Debug\t09_c_a16.res"
***********************************************************************************************************************************************************************************************************************************************************************************************************

***********************************************************************************************************************************************************************************************************************************************************************************************************
*                             S E C T I O N     S U M M A R Y                                                                                                                                                                                                                                             *
***********************************************************************************************************************************************************************************************************************************************************************************************************
*     Section Name                                       Startting Address   Ending Address      Size                                                                                                                                                                                                     *
***********************************************************************************************************************************************************************************************************************************************************************************************************
* "C:\Program Files\Generalplus\unSPIDE 3.0.4\startupcode\startupD.obj"                                                                                                                                                                                                                                   *
*    DEBUG                                               ----                ----                ----                                                                                                                                                                                                     *
*    CODE                                                ----                ----                ----                                                                                                                                                                                                     *
*    DATA                                                ----                ----                ----                                                                                                                                                                                                     *
*    TEXT                                                ----                ----                ----                                                                                                                                                                                                     *
*    IRAM                                                ----                ----                ----                                                                                                                                                                                                     *
*    ISRAM                                               ----                ----                ----                                                                                                                                                                                                     *
*    RAM                                                 ----                ----                ----                                                                                                                                                                                                     *
*    SRAM                                                ----                ----                ----                                                                                                                                                                                                     *
*    ORAM                                                ----                ----                ----                                                                                                                                                                                                     *
*    OSRAM                                               ----                ----                ----                                                                                                                                                                                                     *
*    NB_DATA                                             ----                ----                ----                                                                                                                                                                                                     *
*    CTOR                                                ----                ----                ----                                                                                                                                                                                                     *
*    DTOR                                                ----                ----                ----                                                                                                                                                                                                     *
*    IM                                                  ----                ----                ----                                                                                                                                                                                                     *
*    LINKONCE                                            ----                ----                ----                                                                                                                                                                                                     *
*    VTBL                                                ----                ----                ----                                                                                                                                                                                                     *
*    NB_MERGE                                            ----                ----                ----                                                                                                                                                                                                     *
*    unSP_StartUp(TEXT)                                  8009                8025                1D                                                                                                                                                                                                       *
* "D:\WorkingFolder\Library_Release\SACMV41b_Beta\GPCE063A_Example_V41b\GPCE063A Example Code\DVR1600\Debug\Resource.obj"
*    DEBUG                                               ----                ----                ----                                                                                                                                                                                                     *
*    CODE                                                ----                ----                ----                                                                                                                                                                                                     *
*    DATA                                                ----                ----                ----                                                                                                                                                                                                     *
*    TEXT                                                8026                8034                F                                                                                                                                                                                                        *
*    IRAM                                                ----                ----                ----                                                                                                                                                                                                     *
*    ISRAM                                               ----                ----                ----                                                                                                                                                                                                     *
*    RAM                                                 ----                ----                ----                                                                                                                                                                                                     *
*    SRAM                                                ----                ----                ----                                                                                                                                                                                                     *
*    ORAM                                                ----                ----                ----                                                                                                                                                                                                     *
*    OSRAM                                               ----                ----                ----                                                                                                                                                                                                     *
*    NB_DATA                                             ----                ----                ----                                                                                                                                                                                                     *
*    CTOR                                                ----                ----                ----                                                                                                                                                                                                     *
*    DTOR                                                ----                ----                ----                                                                                                                                                                                                     *
*    IM                                                  ----                ----                ----                                                                                                                                                                                                     *
*    LINKONCE                                            ----                ----                ----                                                                                                                                                                                                     *
*    VTBL                                                ----                ----                ----                                                                                                                                                                                                     *
*    NB_MERGE                                            ----                ----                ----                                                                                                                                                                                                     *
*    RAM_BANK0                                           ----                ----                ----                                                                                                                                                                                                     *
*    IRAM_BANK0                                          ----                ----                ----                                                                                                                                                                                                     *
*    ORAM_BANK0                                          ----                ----                ----                                                                                                                                                                                                     *
* "D:\WorkingFolder\Library_Release\SACMV41b_Beta\GPCE063A_Example_V41b\GPCE063A Example Code\DVR1600\Debug\Isr.obj"
*    DEBUG                                               ----                ----                ----                                                                                                                                                                                                     *
*    CODE                                                ----                ----                ----                                                                                                                                                                                                     *
*    DATA                                                ----                ----                ----                                                                                                                                                                                                     *
*    TEXT                                                8035                806C                38                                                                                                                                                                                                       *
*    IRAM                                                ----                ----                ----                                                                                                                                                                                                     *
*    ISRAM                                               ----                ----                ----                                                                                                                                                                                                     *
*    RAM                                                 ----                ----                ----                                                                                                                                                                                                     *
*    SRAM                                                ----                ----                ----                                                                                                                                                                                                     *
*    ORAM                                                ----                ----                ----                                                                                                                                                                                                     *
*    OSRAM                                               ----                ----                ----                                                                                                                                                                                                     *
*    NB_DATA                                             ----                ----                ----                                                                                                                                                                                                     *
*    CTOR                                                ----                ----                ----                                                                                                                                                                                                     *
*    DTOR                                                ----                ----                ----                                                                                                                                                                                                     *
*    IM                                                  ----                ----                ----                                                                                                                                                                                                     *
*    LINKONCE                                            ----                ----                ----                                                                                                                                                                                                     *
*    VTBL                                                ----                ----                ----                                                                                                                                                                                                     *
*    NB_MERGE                                            ----                ----                ----                                                                                                                                                                                                     *
*    RAM_BANK0                                           ----                ----                ----                                                                                                                                                                                                     *
*    IRAM_BANK0                                          ----                ----                ----                                                                                                                                                                                                     *
*    ORAM_BANK0                                          ----                ----                ----                                                                                                                                                                                                     *
* "D:\WorkingFolder\Library_Release\SACMV41b_Beta\GPCE063A_Example_V41b\GPCE063A Example Code\DVR1600\Debug\main.obj"
*    DEBUG                                               ----                ----                ----                                                                                                                                                                                                     *
*    CODE                                                9507                966A                164                                                                                                                                                                                                      *
*    DATA                                                ----                ----                ----                                                                                                                                                                                                     *
*    TEXT                                                ----                ----                ----                                                                                                                                                                                                     *
*    IRAM                                                9875(210)           987E(219)           A                                                                                                                                                                                                        *
*    ISRAM                                               ----                ----                ----                                                                                                                                                                                                     *
*    RAM                                                 ----                ----                ----                                                                                                                                                                                                     *
*    SRAM                                                ----                ----                ----                                                                                                                                                                                                     *
*    ORAM                                                ----                ----                ----                                                                                                                                                                                                     *
*    OSRAM                                               ----                ----                ----                                                                                                                                                                                                     *
*    NB_DATA                                             ----                ----                ----                                                                                                                                                                                                     *
*    CTOR                                                ----                ----                ----                                                                                                                                                                                                     *
*    DTOR                                                ----                ----                ----                                                                                                                                                                                                     *
*    IM                                                  ----                ----                ----                                                                                                                                                                                                     *
*    LINKONCE                                            ----                ----                ----                                                                                                                                                                                                     *
*    VTBL                                                ----                ----                ----                                                                                                                                                                                                     *
*    NB_MERGE                                            ----                ----                ----                                                                                                                                                                                                     *
*    RAM_BANK0                                           ----                ----                ----                                                                                                                                                                                                     *
*    IRAM_BANK0                                          ----                ----                ----                                                                                                                                                                                                     *
*    ORAM_BANK0                                          ----                ----                ----                                                                                                                                                                                                     *
* "D:\WorkingFolder\Library_Release\SACMV41b_Beta\GPCE063A_Example_V41b\GPCE063A Example Code\DVR1600\Debug\System.obj"
*    DEBUG                                               ----                ----                ----                                                                                                                                                                                                     *
*    CODE                                                9734                97F6                C3                                                                                                                                                                                                       *
*    DATA                                                ----                ----                ----                                                                                                                                                                                                     *
*    TEXT                                                ----                ----                ----                                                                                                                                                                                                     *
*    IRAM                                                ----                ----                ----                                                                                                                                                                                                     *
*    ISRAM                                               ----                ----                ----                                                                                                                                                                                                     *
*    RAM                                                 208                 20B                 4                                                                                                                                                                                                        *
*    SRAM                                                ----                ----                ----                                                                                                                                                                                                     *
*    ORAM                                                ----                ----                ----                                                                                                                                                                                                     *
*    OSRAM                                               ----                ----                ----                                                                                                                                                                                                     *
*    NB_DATA                                             ----                ----                ----                                                                                                                                                                                                     *
*    CTOR                                                ----                ----                ----                                                                                                                                                                                                     *
*    DTOR                                                ----                ----                ----                                                                                                                                                                                                     *
*    IM                                                  ----                ----                ----                                                                                                                                                                                                     *
*    LINKONCE                                            ----                ----                ----                                                                                                                                                                                                     *
*    VTBL                                                ----                ----                ----                                                                                                                                                                                                     *
*    NB_MERGE                                            ----                ----                ----                                                                                                                                                                                                     *
*    RAM_BANK0                                           ----                ----                ----                                                                                                                                                                                                     *
*    IRAM_BANK0                                          ----                ----                ----                                                                                                                                                                                                     *
*    ORAM_BANK0                                          ----                ----                ----                                                                                                                                                                                                     *
* "D:\WorkingFolder\Library_Release\SACMV41b_Beta\GPCE063A_Example_V41b\GPCE063A Example Code\DVR1600\Debug\SACM_DVR1600_User.obj"
*    DEBUG                                               ----                ----                ----                                                                                                                                                                                                     *
*    CODE                                                966B                9733                C9                                                                                                                                                                                                       *
*    DATA                                                ----                ----                ----                                                                                                                                                                                                     *
*    TEXT                                                806D                807C                10                                                                                                                                                                                                       *
*    IRAM                                                ----                ----                ----                                                                                                                                                                                                     *
*    ISRAM                                               ----                ----                ----                                                                                                                                                                                                     *
*    RAM                                                 20C                 20F                 4                                                                                                                                                                                                        *
*    SRAM                                                ----                ----                ----                                                                                                                                                                                                     *
*    ORAM                                                ----                ----                ----                                                                                                                                                                                                     *
*    OSRAM                                               ----                ----                ----                                                                                                                                                                                                     *
*    NB_DATA                                             ----                ----                ----                                                                                                                                                                                                     *
*    CTOR                                                ----                ----                ----                                                                                                                                                                                                     *
*    DTOR                                                ----                ----                ----                                                                                                                                                                                                     *
*    IM                                                  ----                ----                ----                                                                                                                                                                                                     *
*    LINKONCE                                            ----                ----                ----                                                                                                                                                                                                     *
*    VTBL                                                ----                ----                ----                                                                                                                                                                                                     *
*    NB_MERGE                                            ----                ----                ----                                                                                                                                                                                                     *
*    RAM_BANK0                                           ----                ----                ----                                                                                                                                                                                                     *
*    IRAM_BANK0                                          ----                ----                ----                                                                                                                                                                                                     *
*    ORAM_BANK0                                          ----                ----                ----                                                                                                                                                                                                     *
* "D:\WorkingFolder\Library_Release\SACMV41b_Beta\GPCE063A_Example_V41b\GPCE063A Example Code\DVR1600\Debug\SPI_Flash_CE063.obj"
*    DEBUG                                               ----                ----                ----                                                                                                                                                                                                     *
*    CODE                                                8FA6                91A9                204                                                                                                                                                                                                      *
*    DATA                                                ----                ----                ----                                                                                                                                                                                                     *
*    TEXT                                                ----                ----                ----                                                                                                                                                                                                     *
*    IRAM                                                ----                ----                ----                                                                                                                                                                                                     *
*    ISRAM                                               ----                ----                ----                                                                                                                                                                                                     *
*    RAM                                                 ----                ----                ----                                                                                                                                                                                                     *
*    SRAM                                                ----                ----                ----                                                                                                                                                                                                     *
*    ORAM                                                ----                ----                ----                                                                                                                                                                                                     *
*    OSRAM                                               ----                ----                ----                                                                                                                                                                                                     *
*    NB_DATA                                             ----                ----                ----                                                                                                                                                                                                     *
*    CTOR                                                ----                ----                ----                                                                                                                                                                                                     *
*    DTOR                                                ----                ----                ----                                                                                                                                                                                                     *
*    IM                                                  ----                ----                ----                                                                                                                                                                                                     *
*    LINKONCE                                            ----                ----                ----                                                                                                                                                                                                     *
*    VTBL                                                ----                ----                ----                                                                                                                                                                                                     *
*    NB_MERGE                                            ----                ----                ----                                                                                                                                                                                                     *
*    RAM_BANK0                                           ----                ----                ----                                                                                                                                                                                                     *
*    IRAM_BANK0                                          ----                ----                ----                                                                                                                                                                                                     *
*    ORAM_BANK0                                          ----                ----                ----                                                                                                                                                                                                     *
* "D:\WorkingFolder\Library_Release\SACMV41b_Beta\GPCE063A_Example_V41b\GPCE063A Example Code\DVR1600\Debug\t09_a_a16.res"
*    __sn_section_RES_T09_A_A16(DATA)                    987F                A171                8F3                                                                                                                                                                                                      *
* "D:\WorkingFolder\Library_Release\SACMV41b_Beta\GPCE063A_Example_V41b\GPCE063A Example Code\DVR1600\Debug\t09_b_a16.res"
*    __sn_section_RES_T09_B_A16(DATA)                    A172                AA44                8D3                                                                                                                                                                                                      *
* "D:\WorkingFolder\Library_Release\SACMV41b_Beta\GPCE063A_Example_V41b\GPCE063A Example Code\DVR1600\Debug\t09_c_a16.res"
*    __sn_section_RES_T09_C_A16(DATA)                    AA45                B257                813                                                                                                                                                                                                      *
* "D:\WorkingFolder\Library_Source\SACM_V41b\LibMaker\DVR1600\SACM_DVR1600_API"                                                                                                                                                                                                                           *
*    DEBUG                                               ----                ----                ----                                                                                                                                                                                                     *
*    CODE                                                97F7                9874                7E                                                                                                                                                                                                       *
*    DATA                                                ----                ----                ----                                                                                                                                                                                                     *
*    TEXT                                                807D                8269                1ED                                                                                                                                                                                                      *
*    IRAM                                                ----                ----                ----                                                                                                                                                                                                     *
*    ISRAM                                               ----                ----                ----                                                                                                                                                                                                     *
*    RAM                                                 ----                ----                ----                                                                                                                                                                                                     *
*    SRAM                                                ----                ----                ----                                                                                                                                                                                                     *
*    ORAM                                                ----                ----                ----                                                                                                                                                                                                     *
*    OSRAM                                               ----                ----                ----                                                                                                                                                                                                     *
*    NB_DATA                                             ----                ----                ----                                                                                                                                                                                                     *
*    CTOR                                                ----                ----                ----                                                                                                                                                                                                     *
*    DTOR                                                ----                ----                ----                                                                                                                                                                                                     *
*    IM                                                  ----                ----                ----                                                                                                                                                                                                     *
*    LINKONCE                                            ----                ----                ----                                                                                                                                                                                                     *
*    VTBL                                                ----                ----                ----                                                                                                                                                                                                     *
*    NB_MERGE                                            ----                ----                ----                                                                                                                                                                                                     *
*    RAM_BANK0                                           ----                ----                ----                                                                                                                                                                                                     *
*    IRAM_BANK0                                          ----                ----                ----                                                                                                                                                                                                     *
*    ORAM_BANK0                                          ----                ----                ----                                                                                                                                                                                                     *
*    OVERLAP_DVR1600_API_BLOCK(ORAM)                     1                   39                  39                                                                                                                                                                                                       *
*    SACM_DVR1600_ROM_BLOCK(CODE)                        8D5D                8FA5                249                                                                                                                                                                                                      *
* "D:\WorkingFolder\Library_Source\SACM_V41b\LibMaker\DVR1600\SACM_DVR1600_Decode"                                                                                                                                                                                                                        *
*    DEBUG                                               ----                ----                ----                                                                                                                                                                                                     *
*    CODE                                                ----                ----                ----                                                                                                                                                                                                     *
*    DATA                                                ----                ----                ----                                                                                                                                                                                                     *
*    TEXT                                                ----                ----                ----                                                                                                                                                                                                     *
*    IRAM                                                ----                ----                ----                                                                                                                                                                                                     *
*    ISRAM                                               ----                ----                ----                                                                                                                                                                                                     *
*    RAM                                                 ----                ----                ----                                                                                                                                                                                                     *
*    SRAM                                                ----                ----                ----                                                                                                                                                                                                     *
*    ORAM                                                ----                ----                ----                                                                                                                                                                                                     *
*    OSRAM                                               ----                ----                ----                                                                                                                                                                                                     *
*    NB_DATA                                             ----                ----                ----                                                                                                                                                                                                     *
*    CTOR                                                ----                ----                ----                                                                                                                                                                                                     *
*    DTOR                                                ----                ----                ----                                                                                                                                                                                                     *
*    IM                                                  ----                ----                ----                                                                                                                                                                                                     *
*    LINKONCE                                            ----                ----                ----                                                                                                                                                                                                     *
*    VTBL                                                ----                ----                ----                                                                                                                                                                                                     *
*    NB_MERGE                                            ----                ----                ----                                                                                                                                                                                                     *
*    RAM_BANK0                                           ----                ----                ----                                                                                                                                                                                                     *
*    IRAM_BANK0                                          ----                ----                ----                                                                                                                                                                                                     *
*    ORAM_BANK0                                          ----                ----                ----                                                                                                                                                                                                     *
*    OVERLAP_DVR1600_RAM_BLOCK(ORAM)                     3A                  17F                 146                                                                                                                                                                                                      *
*    SACM_DVR1600_DECODE_ROM_BLOCK(CODE)                 9381                9506                186                                                                                                                                                                                                      *
* "D:\SPCB72~1\s~3\DECODE~1.1\DVR160~1\A1600_~2\FINAL_~1\Debug\DVR160~1"                                                                                                                                                                                                                             *
*    DEBUG                                               ----                ----                ----                                                                                                                                                                                                     *
*    CODE                                                8774                8D5C                5E9                                                                                                                                                                                                      *
*    DATA                                                ----                ----                ----                                                                                                                                                                                                     *
*    TEXT                                                826A                86E9                480                                                                                                                                                                                                      *
*    IRAM                                                ----                ----                ----                                                                                                                                                                                                     *
*    ISRAM                                               ----                ----                ----                                                                                                                                                                                                     *
*    RAM                                                 ----                ----                ----                                                                                                                                                                                                     *
*    SRAM                                                ----                ----                ----                                                                                                                                                                                                     *
*    ORAM                                                ----                ----                ----                                                                                                                                                                                                     *
*    OSRAM                                               ----                ----                ----                                                                                                                                                                                                     *
*    NB_DATA                                             ----                ----                ----                                                                                                                                                                                                     *
*    OVERLAP_DVR1600_DM_BLOCK(ORAM)                      180                 207                 88                                                                                                                                                                                                       *
* "D:\SPCB72~1\s~3\DECODE~1.1\DVR160~1\A1600_~2\FINAL_~1\Debug\fft64"                                                                                                                                                                                                                                *
*    DEBUG                                               ----                ----                ----                                                                                                                                                                                                     *
*    CODE                                                91AA                9380                1D7                                                                                                                                                                                                      *
*    DATA                                                ----                ----                ----                                                                                                                                                                                                     *
*    TEXT                                                86EA                8773                8A                                                                                                                                                                                                       *
*    IRAM                                                ----                ----                ----                                                                                                                                                                                                     *
*    ISRAM                                               ----                ----                ----                                                                                                                                                                                                     *
*    RAM                                                 ----                ----                ----                                                                                                                                                                                                     *
*    SRAM                                                ----                ----                ----                                                                                                                                                                                                     *
*    ORAM                                                ----                ----                ----                                                                                                                                                                                                     *
*    OSRAM                                               ----                ----                ----                                                                                                                                                                                                     *
*    NB_DATA                                             ----                ----                ----                                                                                                                                                                                                     *
* "Init Table"                                           8000                8008                9                                                                                                                                                                                                        *
***********************************************************************************************************************************************************************************************************************************************************************************************************

***********************************************************************************************************************************************************************************************************************************************************************************************************
*                             M E M O R Y     S U M M A R Y                                                                                                                                                                                                                                               *
***********************************************************************************************************************************************************************************************************************************************************************************************************
*     Type                          Total               Using        Remain                                                                                                                                                                                                                               *
***********************************************************************************************************************************************************************************************************************************************************************************************************
* "SRam/OSRam/ISRam"                40                   0            40                                                                                                                                                                                                                                  *
* "Ram"                             800                  21A          5E6                                                                                                                                                                                                                                 *
* "First Bank Rom"                  7C00                 3258         49A8                                                                                                                                                                                                                                *
* "Other Banks Rom"                 0                    0            0                                                                                                                                                                                                                                   *
***********************************************************************************************************************************************************************************************************************************************************************************************************

Linker Output Filename : D:\WorkingFolder\Library_Release\SACMV41b_Beta\GPCE063A_Example_V41b\GPCE063A Example Code\DVR1600\Debug\SACM_DVR1600.S37
Disk  Mapping Filename : D:\WorkingFolder\Library_Release\SACMV41b_Beta\GPCE063A_Example_V41b\GPCE063A Example Code\DVR1600\Debug\SACM_DVR1600.map
Symbol  Table FileName : D:\WorkingFolder\Library_Release\SACMV41b_Beta\GPCE063A_Example_V41b\GPCE063A Example Code\DVR1600\Debug\SACM_DVR1600.sym
Format :                 Microtek

Linker Errors :          0
Output Format :          S37
