Friday, January 22, 16:09:37, 2010

                    Generalplus u'nSP Linker version 1.14.13.6 (enc)
                    -------------------------------------------

Global Symbol Name                                Global Value     Global Filename
***********************************************************************************************************************************************************************************************************************************************************************************************************
_RESET                                                   8009      "C:\Program Files\Generalplus\unSPIDE 3.0.3.1\startupcode\startupD.obj"
__sn_loop                                                8025      "C:\Program Files\Generalplus\unSPIDE 3.0.3.1\startupcode\startupD.obj"
__sn_loop2                                               8024      "C:\Program Files\Generalplus\unSPIDE 3.0.3.1\startupcode\startupD.obj"
__sn_init_table                                          8000      "Linker internal symbol"
__sn_sp_val                                              7FF       "Linker internal symbol"
_RES_Table                                               8026      "V:\svn\Library\16-bit\SACM_Library\Example Code\SACM Example Code\GPCE063A Example Code\DVR4800\Debug\Resource.obj"
_RES_CHIMEA_5_A48_SA                                     8026      "V:\svn\Library\16-bit\SACM_Library\Example Code\SACM Example Code\GPCE063A Example Code\DVR4800\Debug\Resource.obj"
_RES_CHIMEA_5_A48_EA                                     8028      "V:\svn\Library\16-bit\SACM_Library\Example Code\SACM Example Code\GPCE063A Example Code\DVR4800\Debug\Resource.obj"
_RES_CHIMEA_4_A48_SA                                     802A      "V:\svn\Library\16-bit\SACM_Library\Example Code\SACM Example Code\GPCE063A Example Code\DVR4800\Debug\Resource.obj"
_RES_CHIMEA_4_A48_EA                                     802C      "V:\svn\Library\16-bit\SACM_Library\Example Code\SACM Example Code\GPCE063A Example Code\DVR4800\Debug\Resource.obj"
T_SACM_DVR4800_SpeechTable                               802E      "V:\svn\Library\16-bit\SACM_Library\Example Code\SACM Example Code\GPCE063A Example Code\DVR4800\Debug\Resource.obj"
_BREAK                                                   8060      "V:\svn\Library\16-bit\SACM_Library\Example Code\SACM Example Code\GPCE063A Example Code\DVR4800\Debug\Isr.obj"
_FIQ                                                     8030      "V:\svn\Library\16-bit\SACM_Library\Example Code\SACM Example Code\GPCE063A Example Code\DVR4800\Debug\Isr.obj"
_IRQ0                                                    8063      "V:\svn\Library\16-bit\SACM_Library\Example Code\SACM Example Code\GPCE063A Example Code\DVR4800\Debug\Isr.obj"
_IRQ1                                                    8066      "V:\svn\Library\16-bit\SACM_Library\Example Code\SACM Example Code\GPCE063A Example Code\DVR4800\Debug\Isr.obj"
_IRQ2                                                    8069      "V:\svn\Library\16-bit\SACM_Library\Example Code\SACM Example Code\GPCE063A Example Code\DVR4800\Debug\Isr.obj"
_IRQ3                                                    806C      "V:\svn\Library\16-bit\SACM_Library\Example Code\SACM Example Code\GPCE063A Example Code\DVR4800\Debug\Isr.obj"
_IRQ4                                                    806F      "V:\svn\Library\16-bit\SACM_Library\Example Code\SACM Example Code\GPCE063A Example Code\DVR4800\Debug\Isr.obj"
_IRQ5                                                    8072      "V:\svn\Library\16-bit\SACM_Library\Example Code\SACM Example Code\GPCE063A Example Code\DVR4800\Debug\Isr.obj"
_IRQ6                                                    8075      "V:\svn\Library\16-bit\SACM_Library\Example Code\SACM Example Code\GPCE063A Example Code\DVR4800\Debug\Isr.obj"
_IRQ7                                                    8078      "V:\svn\Library\16-bit\SACM_Library\Example Code\SACM Example Code\GPCE063A Example Code\DVR4800\Debug\Isr.obj"
_main                                                    A13D      "V:\svn\Library\16-bit\SACM_Library\Example Code\SACM Example Code\GPCE063A Example Code\DVR4800\Debug\main.obj"
_Key                                                     41B       "V:\svn\Library\16-bit\SACM_Library\Example Code\SACM Example Code\GPCE063A Example Code\DVR4800\Debug\main.obj"
_SpeechIndex                                             41C       "V:\svn\Library\16-bit\SACM_Library\Example Code\SACM Example Code\GPCE063A Example Code\DVR4800\Debug\main.obj"
_VolumeIndex                                             41D       "V:\svn\Library\16-bit\SACM_Library\Example Code\SACM Example Code\GPCE063A Example Code\DVR4800\Debug\main.obj"
_BitRate                                                 41E       "V:\svn\Library\16-bit\SACM_Library\Example Code\SACM Example Code\GPCE063A Example Code\DVR4800\Debug\main.obj"
_ADC_Channel                                             41F       "V:\svn\Library\16-bit\SACM_Library\Example Code\SACM Example Code\GPCE063A Example Code\DVR4800\Debug\main.obj"
_ADC_FIR_Type                                            420       "V:\svn\Library\16-bit\SACM_Library\Example Code\SACM Example Code\GPCE063A Example Code\DVR4800\Debug\main.obj"
_DAC_FIR_Type                                            421       "V:\svn\Library\16-bit\SACM_Library\Example Code\SACM Example Code\GPCE063A Example Code\DVR4800\Debug\main.obj"
_PauseFlag                                               422       "V:\svn\Library\16-bit\SACM_Library\Example Code\SACM Example Code\GPCE063A Example Code\DVR4800\Debug\main.obj"
_PlayCon                                                 423       "V:\svn\Library\16-bit\SACM_Library\Example Code\SACM Example Code\GPCE063A Example Code\DVR4800\Debug\main.obj"
_Mode                                                    424       "V:\svn\Library\16-bit\SACM_Library\Example Code\SACM Example Code\GPCE063A Example Code\DVR4800\Debug\main.obj"
_System_Initial                                          A4EA      "V:\svn\Library\16-bit\SACM_Library\Example Code\SACM Example Code\GPCE063A Example Code\DVR4800\Debug\System.obj"
F_System_Initial                                         A4EA      "V:\svn\Library\16-bit\SACM_Library\Example Code\SACM Example Code\GPCE063A Example Code\DVR4800\Debug\System.obj"
_System_ServiceLoop                                      A50C      "V:\svn\Library\16-bit\SACM_Library\Example Code\SACM Example Code\GPCE063A Example Code\DVR4800\Debug\System.obj"
F_System_ServiceLoop                                     A50C      "V:\svn\Library\16-bit\SACM_Library\Example Code\SACM Example Code\GPCE063A Example Code\DVR4800\Debug\System.obj"
_WatchdogClear                                           A507      "V:\svn\Library\16-bit\SACM_Library\Example Code\SACM Example Code\GPCE063A Example Code\DVR4800\Debug\System.obj"
F_WatchdogClear                                          A507      "V:\svn\Library\16-bit\SACM_Library\Example Code\SACM Example Code\GPCE063A Example Code\DVR4800\Debug\System.obj"
_SP_GetCh                                                A546      "V:\svn\Library\16-bit\SACM_Library\Example Code\SACM Example Code\GPCE063A Example Code\DVR4800\Debug\System.obj"
F_SP_GetCh                                               A546      "V:\svn\Library\16-bit\SACM_Library\Example Code\SACM Example Code\GPCE063A Example Code\DVR4800\Debug\System.obj"
_SP_SwitchChannel                                        A4CE      "V:\svn\Library\16-bit\SACM_Library\Example Code\SACM Example Code\GPCE063A Example Code\DVR4800\Debug\System.obj"
F_SP_SwitchChannel                                       A4D1      "V:\svn\Library\16-bit\SACM_Library\Example Code\SACM Example Code\GPCE063A Example Code\DVR4800\Debug\System.obj"
_SP_RampUpDAC1                                           A56C      "V:\svn\Library\16-bit\SACM_Library\Example Code\SACM Example Code\GPCE063A Example Code\DVR4800\Debug\System.obj"
F_SP_RampUpDAC1                                          A56C      "V:\svn\Library\16-bit\SACM_Library\Example Code\SACM Example Code\GPCE063A Example Code\DVR4800\Debug\System.obj"
_SP_RampDnDAC1                                           A54C      "V:\svn\Library\16-bit\SACM_Library\Example Code\SACM Example Code\GPCE063A Example Code\DVR4800\Debug\System.obj"
F_SP_RampDnDAC1                                          A54C      "V:\svn\Library\16-bit\SACM_Library\Example Code\SACM Example Code\GPCE063A Example Code\DVR4800\Debug\System.obj"
_SP_RampUpDAC2                                           A589      "V:\svn\Library\16-bit\SACM_Library\Example Code\SACM Example Code\GPCE063A Example Code\DVR4800\Debug\System.obj"
F_SP_RampUpDAC2                                          A589      "V:\svn\Library\16-bit\SACM_Library\Example Code\SACM Example Code\GPCE063A Example Code\DVR4800\Debug\System.obj"
_SP_RampDnDAC2                                           A569      "V:\svn\Library\16-bit\SACM_Library\Example Code\SACM Example Code\GPCE063A Example Code\DVR4800\Debug\System.obj"
F_SP_RampDnDAC2                                          A569      "V:\svn\Library\16-bit\SACM_Library\Example Code\SACM Example Code\GPCE063A Example Code\DVR4800\Debug\System.obj"
_USER_DVR4800_SetStartAddr                               A463      "V:\svn\Library\16-bit\SACM_Library\Example Code\SACM Example Code\GPCE063A Example Code\DVR4800\Debug\SACM_DVR4800_User.obj"
F_USER_DVR4800_SetStartAddr                              A467      "V:\svn\Library\16-bit\SACM_Library\Example Code\SACM Example Code\GPCE063A Example Code\DVR4800\Debug\SACM_DVR4800_User.obj"
_USER_DVR4800_SetStartAddr_Con                           A47E      "V:\svn\Library\16-bit\SACM_Library\Example Code\SACM Example Code\GPCE063A Example Code\DVR4800\Debug\SACM_DVR4800_User.obj"
F_USER_DVR4800_SetStartAddr_Con                          A481      "V:\svn\Library\16-bit\SACM_Library\Example Code\SACM Example Code\GPCE063A Example Code\DVR4800\Debug\SACM_DVR4800_User.obj"
F_USER_DVR4800_GetData                                   A499      "V:\svn\Library\16-bit\SACM_Library\Example Code\SACM Example Code\GPCE063A Example Code\DVR4800\Debug\SACM_DVR4800_User.obj"
F_USER_DVR4800_WriteData                                 A4C1      "V:\svn\Library\16-bit\SACM_Library\Example Code\SACM Example Code\GPCE063A Example Code\DVR4800\Debug\SACM_DVR4800_User.obj"
_USER_DVR4800_Volume                                     A424      "V:\svn\Library\16-bit\SACM_Library\Example Code\SACM Example Code\GPCE063A Example Code\DVR4800\Debug\SACM_DVR4800_User.obj"
F_USER_DVR4800_Volume                                    A427      "V:\svn\Library\16-bit\SACM_Library\Example Code\SACM Example Code\GPCE063A Example Code\DVR4800\Debug\SACM_DVR4800_User.obj"
F_SACM_DVR4800_SendDAC1                                  A44D      "V:\svn\Library\16-bit\SACM_Library\Example Code\SACM Example Code\GPCE063A Example Code\DVR4800\Debug\SACM_DVR4800_User.obj"
F_SACM_DVR4800_SendDAC2                                  A450      "V:\svn\Library\16-bit\SACM_Library\Example Code\SACM Example Code\GPCE063A Example Code\DVR4800\Debug\SACM_DVR4800_User.obj"
F_SACM_DVR4800_GetADC                                    A44A      "V:\svn\Library\16-bit\SACM_Library\Example Code\SACM Example Code\GPCE063A Example Code\DVR4800\Debug\SACM_DVR4800_User.obj"
F_SACM_DVR4800_StartPlay                                 A451      "V:\svn\Library\16-bit\SACM_Library\Example Code\SACM Example Code\GPCE063A Example Code\DVR4800\Debug\SACM_DVR4800_User.obj"
F_SACM_DVR4800_EndPlay                                   A453      "V:\svn\Library\16-bit\SACM_Library\Example Code\SACM Example Code\GPCE063A Example Code\DVR4800\Debug\SACM_DVR4800_User.obj"
F_SACM_DVR4800_StartRecord                               A455      "V:\svn\Library\16-bit\SACM_Library\Example Code\SACM Example Code\GPCE063A Example Code\DVR4800\Debug\SACM_DVR4800_User.obj"
F_SACM_DVR4800_EndRecord                                 A457      "V:\svn\Library\16-bit\SACM_Library\Example Code\SACM Example Code\GPCE063A Example Code\DVR4800\Debug\SACM_DVR4800_User.obj"
F_SACM_DVR4800_Init_                                     A405      "V:\svn\Library\16-bit\SACM_Library\Example Code\SACM Example Code\GPCE063A Example Code\DVR4800\Debug\SACM_DVR4800_User.obj"
F_SACM_DVR4800_DAC_Timer_X1                              A42D      "V:\svn\Library\16-bit\SACM_Library\Example Code\SACM Example Code\GPCE063A Example Code\DVR4800\Debug\SACM_DVR4800_User.obj"
F_SACM_DVR4800_DAC_Timer_X2                              A432      "V:\svn\Library\16-bit\SACM_Library\Example Code\SACM Example Code\GPCE063A Example Code\DVR4800\Debug\SACM_DVR4800_User.obj"
F_SACM_DVR4800_ADC_Timer_X1                              A439      "V:\svn\Library\16-bit\SACM_Library\Example Code\SACM Example Code\GPCE063A Example Code\DVR4800\Debug\SACM_DVR4800_User.obj"
F_SACM_DVR4800_ADC_Timer_X2                              A43E      "V:\svn\Library\16-bit\SACM_Library\Example Code\SACM Example Code\GPCE063A Example Code\DVR4800\Debug\SACM_DVR4800_User.obj"
F_SACM_DVR4800_ADC_Timer_X4                              A443      "V:\svn\Library\16-bit\SACM_Library\Example Code\SACM Example Code\GPCE063A Example Code\DVR4800\Debug\SACM_DVR4800_User.obj"
F_SACM_DVR4800_GetStartAddr_Con                          A490      "V:\svn\Library\16-bit\SACM_Library\Example Code\SACM Example Code\GPCE063A Example Code\DVR4800\Debug\SACM_DVR4800_User.obj"
_SPI_Initial                                             9F39      "V:\svn\Library\16-bit\SACM_Library\Example Code\SACM Example Code\GPCE063A Example Code\DVR4800\Debug\SPI_Flash_CE063.obj"
F_SPI_Initial                                            9F39      "V:\svn\Library\16-bit\SACM_Library\Example Code\SACM Example Code\GPCE063A Example Code\DVR4800\Debug\SPI_Flash_CE063.obj"
_SPI_ReadAWord                                           9F7F      "V:\svn\Library\16-bit\SACM_Library\Example Code\SACM Example Code\GPCE063A Example Code\DVR4800\Debug\SPI_Flash_CE063.obj"
F_SPI_ReadAWord                                          9F83      "V:\svn\Library\16-bit\SACM_Library\Example Code\SACM Example Code\GPCE063A Example Code\DVR4800\Debug\SPI_Flash_CE063.obj"
_SPI_ReadNWords                                          9FB4      "V:\svn\Library\16-bit\SACM_Library\Example Code\SACM Example Code\GPCE063A Example Code\DVR4800\Debug\SPI_Flash_CE063.obj"
F_SPI_ReadNWords                                         9FBA      "V:\svn\Library\16-bit\SACM_Library\Example Code\SACM Example Code\GPCE063A Example Code\DVR4800\Debug\SPI_Flash_CE063.obj"
_SPI_SendAWord                                           9FEE      "V:\svn\Library\16-bit\SACM_Library\Example Code\SACM Example Code\GPCE063A Example Code\DVR4800\Debug\SPI_Flash_CE063.obj"
F_SPI_SendAWord                                          9FF3      "V:\svn\Library\16-bit\SACM_Library\Example Code\SACM Example Code\GPCE063A Example Code\DVR4800\Debug\SPI_Flash_CE063.obj"
_SPI_SendNWords                                          A025      "V:\svn\Library\16-bit\SACM_Library\Example Code\SACM Example Code\GPCE063A Example Code\DVR4800\Debug\SPI_Flash_CE063.obj"
F_SPI_SendNWords                                         A02B      "V:\svn\Library\16-bit\SACM_Library\Example Code\SACM Example Code\GPCE063A Example Code\DVR4800\Debug\SPI_Flash_CE063.obj"
_Flash_Write_Enable                                      A073      "V:\svn\Library\16-bit\SACM_Library\Example Code\SACM Example Code\GPCE063A Example Code\DVR4800\Debug\SPI_Flash_CE063.obj"
F_Flash_Write_Enable                                     A073      "V:\svn\Library\16-bit\SACM_Library\Example Code\SACM Example Code\GPCE063A Example Code\DVR4800\Debug\SPI_Flash_CE063.obj"
_Flash_Write_Disable                                     A086      "V:\svn\Library\16-bit\SACM_Library\Example Code\SACM Example Code\GPCE063A Example Code\DVR4800\Debug\SPI_Flash_CE063.obj"
F_Flash_Write_Disable                                    A086      "V:\svn\Library\16-bit\SACM_Library\Example Code\SACM Example Code\GPCE063A Example Code\DVR4800\Debug\SPI_Flash_CE063.obj"
_SPI_Read_Status_Register                                A096      "V:\svn\Library\16-bit\SACM_Library\Example Code\SACM Example Code\GPCE063A Example Code\DVR4800\Debug\SPI_Flash_CE063.obj"
F_SPI_Read_Status_Register                               A096      "V:\svn\Library\16-bit\SACM_Library\Example Code\SACM Example Code\GPCE063A Example Code\DVR4800\Debug\SPI_Flash_CE063.obj"
_SPI_Enable_Write_Status_Registe                         A0A9      "V:\svn\Library\16-bit\SACM_Library\Example Code\SACM Example Code\GPCE063A Example Code\DVR4800\Debug\SPI_Flash_CE063.obj"
F_SPI_Enable_Write_Status_Regist                         A0A9      "V:\svn\Library\16-bit\SACM_Library\Example Code\SACM Example Code\GPCE063A Example Code\DVR4800\Debug\SPI_Flash_CE063.obj"
_SPI_Write_Status_Register                               A0B9      "V:\svn\Library\16-bit\SACM_Library\Example Code\SACM Example Code\GPCE063A Example Code\DVR4800\Debug\SPI_Flash_CE063.obj"
F_SPI_Write_Status_Register                              A0BC      "V:\svn\Library\16-bit\SACM_Library\Example Code\SACM Example Code\GPCE063A Example Code\DVR4800\Debug\SPI_Flash_CE063.obj"
_SPI_Flash_Sector_Erase                                  A0D0      "V:\svn\Library\16-bit\SACM_Library\Example Code\SACM Example Code\GPCE063A Example Code\DVR4800\Debug\SPI_Flash_CE063.obj"
F_SPI_Flash_Sector_Erase                                 A0D3      "V:\svn\Library\16-bit\SACM_Library\Example Code\SACM Example Code\GPCE063A Example Code\DVR4800\Debug\SPI_Flash_CE063.obj"
_SPI_Flash_Chip_Erase                                    A100      "V:\svn\Library\16-bit\SACM_Library\Example Code\SACM Example Code\GPCE063A Example Code\DVR4800\Debug\SPI_Flash_CE063.obj"
F_SPI_Flash_Chip_Erase                                   A100      "V:\svn\Library\16-bit\SACM_Library\Example Code\SACM Example Code\GPCE063A Example Code\DVR4800\Debug\SPI_Flash_CE063.obj"
_SPI_Read_Flash_ID                                       A11B      "V:\svn\Library\16-bit\SACM_Library\Example Code\SACM Example Code\GPCE063A Example Code\DVR4800\Debug\SPI_Flash_CE063.obj"
F_SPI_Read_Flash_ID                                      A11B      "V:\svn\Library\16-bit\SACM_Library\Example Code\SACM Example Code\GPCE063A Example Code\DVR4800\Debug\SPI_Flash_CE063.obj"
__RES_CHIMEA_5_A48_sa                                    A616      "V:\svn\Library\16-bit\SACM_Library\Example Code\SACM Example Code\GPCE063A Example Code\DVR4800\Debug\chimeA_5_A48.res"
__RES_CHIMEA_5_A48_ea                                    B489      "V:\svn\Library\16-bit\SACM_Library\Example Code\SACM Example Code\GPCE063A Example Code\DVR4800\Debug\chimeA_5_A48.res"
__RES_CHIMEA_4_A48_sa                                    B489      "V:\svn\Library\16-bit\SACM_Library\Example Code\SACM Example Code\GPCE063A Example Code\DVR4800\Debug\chimeA_4_A48.res"
__RES_CHIMEA_4_A48_ea                                    C2FC      "V:\svn\Library\16-bit\SACM_Library\Example Code\SACM Example Code\GPCE063A Example Code\DVR4800\Debug\chimeA_4_A48.res"
***********************************************************************************************************************************************************************************************************************************************************************************************************

***********************************************************************************************************************************************************************************************************************************************************************************************************
*                             S E C T I O N     S U M M A R Y                                                                                                                                                                                                                                             *
***********************************************************************************************************************************************************************************************************************************************************************************************************
*     Section Name                                       Startting Address   Ending Address      Size                                                                                                                                                                                                     *
***********************************************************************************************************************************************************************************************************************************************************************************************************
* "C:\Program Files\Generalplus\unSPIDE 3.0.3.1\startupcode\startupD.obj"                                                                                                                                                                                                                                 *
*    DEBUG                                               ----                ----                ----                                                                                                                                                                                                     *
*    CODE                                                ----                ----                ----                                                                                                                                                                                                     *
*    DATA                                                ----                ----                ----                                                                                                                                                                                                     *
*    TEXT                                                ----                ----                ----                                                                                                                                                                                                     *
*    IRAM                                                ----                ----                ----                                                                                                                                                                                                     *
*    ISRAM                                               ----                ----                ----                                                                                                                                                                                                     *
*    RAM                                                 ----                ----                ----                                                                                                                                                                                                     *
*    SRAM                                                ----                ----                ----                                                                                                                                                                                                     *
*    ORAM                                                ----                ----                ----                                                                                                                                                                                                     *
*    OSRAM                                               ----                ----                ----                                                                                                                                                                                                     *
*    NB_DATA                                             ----                ----                ----                                                                                                                                                                                                     *
*    CTOR                                                ----                ----                ----                                                                                                                                                                                                     *
*    DTOR                                                ----                ----                ----                                                                                                                                                                                                     *
*    IM                                                  ----                ----                ----                                                                                                                                                                                                     *
*    LINKONCE                                            ----                ----                ----                                                                                                                                                                                                     *
*    VTBL                                                ----                ----                ----                                                                                                                                                                                                     *
*    NB_MERGE                                            ----                ----                ----                                                                                                                                                                                                     *
*    unSP_StartUp(TEXT)                                  8009                8025                1D                                                                                                                                                                                                       *
* "V:\svn\Library\16-bit\SACM_Library\Example Code\SACM Example Code\GPCE063A Example Code\DVR4800\Debug\Resource.obj"
*    DEBUG                                               ----                ----                ----                                                                                                                                                                                                     *
*    CODE                                                ----                ----                ----                                                                                                                                                                                                     *
*    DATA                                                ----                ----                ----                                                                                                                                                                                                     *
*    TEXT                                                8026                802F                A                                                                                                                                                                                                        *
*    IRAM                                                ----                ----                ----                                                                                                                                                                                                     *
*    ISRAM                                               ----                ----                ----                                                                                                                                                                                                     *
*    RAM                                                 ----                ----                ----                                                                                                                                                                                                     *
*    SRAM                                                ----                ----                ----                                                                                                                                                                                                     *
*    ORAM                                                ----                ----                ----                                                                                                                                                                                                     *
*    OSRAM                                               ----                ----                ----                                                                                                                                                                                                     *
*    NB_DATA                                             ----                ----                ----                                                                                                                                                                                                     *
*    CTOR                                                ----                ----                ----                                                                                                                                                                                                     *
*    DTOR                                                ----                ----                ----                                                                                                                                                                                                     *
*    IM                                                  ----                ----                ----                                                                                                                                                                                                     *
*    LINKONCE                                            ----                ----                ----                                                                                                                                                                                                     *
*    VTBL                                                ----                ----                ----                                                                                                                                                                                                     *
*    NB_MERGE                                            ----                ----                ----                                                                                                                                                                                                     *
*    RAM_BANK0                                           ----                ----                ----                                                                                                                                                                                                     *
*    IRAM_BANK0                                          ----                ----                ----                                                                                                                                                                                                     *
*    ORAM_BANK0                                          ----                ----                ----                                                                                                                                                                                                     *
* "V:\svn\Library\16-bit\SACM_Library\Example Code\SACM Example Code\GPCE063A Example Code\DVR4800\Debug\Isr.obj"
*    DEBUG                                               ----                ----                ----                                                                                                                                                                                                     *
*    CODE                                                ----                ----                ----                                                                                                                                                                                                     *
*    DATA                                                ----                ----                ----                                                                                                                                                                                                     *
*    TEXT                                                8030                807A                4B                                                                                                                                                                                                       *
*    IRAM                                                ----                ----                ----                                                                                                                                                                                                     *
*    ISRAM                                               ----                ----                ----                                                                                                                                                                                                     *
*    RAM                                                 ----                ----                ----                                                                                                                                                                                                     *
*    SRAM                                                ----                ----                ----                                                                                                                                                                                                     *
*    ORAM                                                ----                ----                ----                                                                                                                                                                                                     *
*    OSRAM                                               ----                ----                ----                                                                                                                                                                                                     *
*    NB_DATA                                             ----                ----                ----                                                                                                                                                                                                     *
*    CTOR                                                ----                ----                ----                                                                                                                                                                                                     *
*    DTOR                                                ----                ----                ----                                                                                                                                                                                                     *
*    IM                                                  ----                ----                ----                                                                                                                                                                                                     *
*    LINKONCE                                            ----                ----                ----                                                                                                                                                                                                     *
*    VTBL                                                ----                ----                ----                                                                                                                                                                                                     *
*    NB_MERGE                                            ----                ----                ----                                                                                                                                                                                                     *
*    RAM_BANK0                                           ----                ----                ----                                                                                                                                                                                                     *
*    IRAM_BANK0                                          ----                ----                ----                                                                                                                                                                                                     *
*    ORAM_BANK0                                          ----                ----                ----                                                                                                                                                                                                     *
* "V:\svn\Library\16-bit\SACM_Library\Example Code\SACM Example Code\GPCE063A Example Code\DVR4800\Debug\main.obj"
*    DEBUG                                               ----                ----                ----                                                                                                                                                                                                     *
*    CODE                                                A13D                A2A2                166                                                                                                                                                                                                      *
*    DATA                                                ----                ----                ----                                                                                                                                                                                                     *
*    TEXT                                                ----                ----                ----                                                                                                                                                                                                     *
*    IRAM                                                A60C(41B)           A615(424)           A                                                                                                                                                                                                        *
*    ISRAM                                               ----                ----                ----                                                                                                                                                                                                     *
*    RAM                                                 ----                ----                ----                                                                                                                                                                                                     *
*    SRAM                                                ----                ----                ----                                                                                                                                                                                                     *
*    ORAM                                                ----                ----                ----                                                                                                                                                                                                     *
*    OSRAM                                               ----                ----                ----                                                                                                                                                                                                     *
*    NB_DATA                                             ----                ----                ----                                                                                                                                                                                                     *
*    CTOR                                                ----                ----                ----                                                                                                                                                                                                     *
*    DTOR                                                ----                ----                ----                                                                                                                                                                                                     *
*    IM                                                  ----                ----                ----                                                                                                                                                                                                     *
*    LINKONCE                                            ----                ----                ----                                                                                                                                                                                                     *
*    VTBL                                                ----                ----                ----                                                                                                                                                                                                     *
*    NB_MERGE                                            ----                ----                ----                                                                                                                                                                                                     *
*    RAM_BANK0                                           ----                ----                ----                                                                                                                                                                                                     *
*    IRAM_BANK0                                          ----                ----                ----                                                                                                                                                                                                     *
*    ORAM_BANK0                                          ----                ----                ----                                                                                                                                                                                                     *
* "V:\svn\Library\16-bit\SACM_Library\Example Code\SACM Example Code\GPCE063A Example Code\DVR4800\Debug\System.obj"
*    DEBUG                                               ----                ----                ----                                                                                                                                                                                                     *
*    CODE                                                A4CE                A590                C3                                                                                                                                                                                                       *
*    DATA                                                ----                ----                ----                                                                                                                                                                                                     *
*    TEXT                                                ----                ----                ----                                                                                                                                                                                                     *
*    IRAM                                                ----                ----                ----                                                                                                                                                                                                     *
*    ISRAM                                               ----                ----                ----                                                                                                                                                                                                     *
*    RAM                                                 413                 416                 4                                                                                                                                                                                                        *
*    SRAM                                                ----                ----                ----                                                                                                                                                                                                     *
*    ORAM                                                ----                ----                ----                                                                                                                                                                                                     *
*    OSRAM                                               ----                ----                ----                                                                                                                                                                                                     *
*    NB_DATA                                             ----                ----                ----                                                                                                                                                                                                     *
*    CTOR                                                ----                ----                ----                                                                                                                                                                                                     *
*    DTOR                                                ----                ----                ----                                                                                                                                                                                                     *
*    IM                                                  ----                ----                ----                                                                                                                                                                                                     *
*    LINKONCE                                            ----                ----                ----                                                                                                                                                                                                     *
*    VTBL                                                ----                ----                ----                                                                                                                                                                                                     *
*    NB_MERGE                                            ----                ----                ----                                                                                                                                                                                                     *
*    RAM_BANK0                                           ----                ----                ----                                                                                                                                                                                                     *
*    IRAM_BANK0                                          ----                ----                ----                                                                                                                                                                                                     *
*    ORAM_BANK0                                          ----                ----                ----                                                                                                                                                                                                     *
* "V:\svn\Library\16-bit\SACM_Library\Example Code\SACM Example Code\GPCE063A Example Code\DVR4800\Debug\SACM_DVR4800_User.obj"
*    DEBUG                                               ----                ----                ----                                                                                                                                                                                                     *
*    CODE                                                A405                A4CD                C9                                                                                                                                                                                                       *
*    DATA                                                ----                ----                ----                                                                                                                                                                                                     *
*    TEXT                                                807B                808A                10                                                                                                                                                                                                       *
*    IRAM                                                ----                ----                ----                                                                                                                                                                                                     *
*    ISRAM                                               ----                ----                ----                                                                                                                                                                                                     *
*    RAM                                                 417                 41A                 4                                                                                                                                                                                                        *
*    SRAM                                                ----                ----                ----                                                                                                                                                                                                     *
*    ORAM                                                ----                ----                ----                                                                                                                                                                                                     *
*    OSRAM                                               ----                ----                ----                                                                                                                                                                                                     *
*    NB_DATA                                             ----                ----                ----                                                                                                                                                                                                     *
*    CTOR                                                ----                ----                ----                                                                                                                                                                                                     *
*    DTOR                                                ----                ----                ----                                                                                                                                                                                                     *
*    IM                                                  ----                ----                ----                                                                                                                                                                                                     *
*    LINKONCE                                            ----                ----                ----                                                                                                                                                                                                     *
*    VTBL                                                ----                ----                ----                                                                                                                                                                                                     *
*    NB_MERGE                                            ----                ----                ----                                                                                                                                                                                                     *
*    RAM_BANK0                                           ----                ----                ----                                                                                                                                                                                                     *
*    IRAM_BANK0                                          ----                ----                ----                                                                                                                                                                                                     *
*    ORAM_BANK0                                          ----                ----                ----                                                                                                                                                                                                     *
* "V:\svn\Library\16-bit\SACM_Library\Example Code\SACM Example Code\GPCE063A Example Code\DVR4800\Debug\SPI_Flash_CE063.obj"
*    DEBUG                                               ----                ----                ----                                                                                                                                                                                                     *
*    CODE                                                9F39                A13C                204                                                                                                                                                                                                      *
*    DATA                                                ----                ----                ----                                                                                                                                                                                                     *
*    TEXT                                                ----                ----                ----                                                                                                                                                                                                     *
*    IRAM                                                ----                ----                ----                                                                                                                                                                                                     *
*    ISRAM                                               ----                ----                ----                                                                                                                                                                                                     *
*    RAM                                                 ----                ----                ----                                                                                                                                                                                                     *
*    SRAM                                                ----                ----                ----                                                                                                                                                                                                     *
*    ORAM                                                ----                ----                ----                                                                                                                                                                                                     *
*    OSRAM                                               ----                ----                ----                                                                                                                                                                                                     *
*    NB_DATA                                             ----                ----                ----                                                                                                                                                                                                     *
*    CTOR                                                ----                ----                ----                                                                                                                                                                                                     *
*    DTOR                                                ----                ----                ----                                                                                                                                                                                                     *
*    IM                                                  ----                ----                ----                                                                                                                                                                                                     *
*    LINKONCE                                            ----                ----                ----                                                                                                                                                                                                     *
*    VTBL                                                ----                ----                ----                                                                                                                                                                                                     *
*    NB_MERGE                                            ----                ----                ----                                                                                                                                                                                                     *
*    RAM_BANK0                                           ----                ----                ----                                                                                                                                                                                                     *
*    IRAM_BANK0                                          ----                ----                ----                                                                                                                                                                                                     *
*    ORAM_BANK0                                          ----                ----                ----                                                                                                                                                                                                     *
* "V:\svn\Library\16-bit\SACM_Library\Example Code\SACM Example Code\GPCE063A Example Code\DVR4800\Debug\chimeA_5_A48.res"
*    __sn_section_RES_CHIMEA_5_A48(DATA)                 A616                B488                E73                                                                                                                                                                                                      *
* "V:\svn\Library\16-bit\SACM_Library\Example Code\SACM Example Code\GPCE063A Example Code\DVR4800\Debug\chimeA_4_A48.res"
*    __sn_section_RES_CHIMEA_4_A48(DATA)                 B489                C2FB                E73                                                                                                                                                                                                      *
* "D:\WorkingFolder\Library_Source\SACM_V41b\LibMaker\DVR4800\SACM_DVR4800_API"                                                                                                                                                                                                                           *
*    DEBUG                                               ----                ----                ----                                                                                                                                                                                                     *
*    CODE                                                A591                A60B                7B                                                                                                                                                                                                       *
*    DATA                                                ----                ----                ----                                                                                                                                                                                                     *
*    TEXT                                                808B                822A                1A0                                                                                                                                                                                                      *
*    IRAM                                                ----                ----                ----                                                                                                                                                                                                     *
*    ISRAM                                               ----                ----                ----                                                                                                                                                                                                     *
*    RAM                                                 ----                ----                ----                                                                                                                                                                                                     *
*    SRAM                                                ----                ----                ----                                                                                                                                                                                                     *
*    ORAM                                                ----                ----                ----                                                                                                                                                                                                     *
*    OSRAM                                               ----                ----                ----                                                                                                                                                                                                     *
*    NB_DATA                                             ----                ----                ----                                                                                                                                                                                                     *
*    CTOR                                                ----                ----                ----                                                                                                                                                                                                     *
*    DTOR                                                ----                ----                ----                                                                                                                                                                                                     *
*    IM                                                  ----                ----                ----                                                                                                                                                                                                     *
*    LINKONCE                                            ----                ----                ----                                                                                                                                                                                                     *
*    VTBL                                                ----                ----                ----                                                                                                                                                                                                     *
*    NB_MERGE                                            ----                ----                ----                                                                                                                                                                                                     *
*    RAM_BANK0                                           ----                ----                ----                                                                                                                                                                                                     *
*    IRAM_BANK0                                          ----                ----                ----                                                                                                                                                                                                     *
*    ORAM_BANK0                                          ----                ----                ----                                                                                                                                                                                                     *
*    OVERLAP_DVR4800_API_BLOCK(ORAM)                     1                   39                  39                                                                                                                                                                                                       *
*    SACM_DVR4800_ROM_BLOCK(CODE)                        9CF0                9F38                249                                                                                                                                                                                                      *
* "D:\WorkingFolder\Library_Source\SACM_V41b\LibMaker\DVR4800\SACM_DVR4800_Decode"                                                                                                                                                                                                                        *
*    DEBUG                                               ----                ----                ----                                                                                                                                                                                                     *
*    CODE                                                ----                ----                ----                                                                                                                                                                                                     *
*    DATA                                                ----                ----                ----                                                                                                                                                                                                     *
*    TEXT                                                ----                ----                ----                                                                                                                                                                                                     *
*    IRAM                                                ----                ----                ----                                                                                                                                                                                                     *
*    ISRAM                                               ----                ----                ----                                                                                                                                                                                                     *
*    RAM                                                 ----                ----                ----                                                                                                                                                                                                     *
*    SRAM                                                ----                ----                ----                                                                                                                                                                                                     *
*    ORAM                                                ----                ----                ----                                                                                                                                                                                                     *
*    OSRAM                                               ----                ----                ----                                                                                                                                                                                                     *
*    NB_DATA                                             ----                ----                ----                                                                                                                                                                                                     *
*    CTOR                                                ----                ----                ----                                                                                                                                                                                                     *
*    DTOR                                                ----                ----                ----                                                                                                                                                                                                     *
*    IM                                                  ----                ----                ----                                                                                                                                                                                                     *
*    LINKONCE                                            ----                ----                ----                                                                                                                                                                                                     *
*    VTBL                                                ----                ----                ----                                                                                                                                                                                                     *
*    NB_MERGE                                            ----                ----                ----                                                                                                                                                                                                     *
*    RAM_BANK0                                           ----                ----                ----                                                                                                                                                                                                     *
*    IRAM_BANK0                                          ----                ----                ----                                                                                                                                                                                                     *
*    ORAM_BANK0                                          ----                ----                ----                                                                                                                                                                                                     *
*    OVERLAP_DVR4800_RAM_BLOCK(ORAM)                     3A                  30A                 2D1                                                                                                                                                                                                      *
*    SACM_DVR4800_DECODE_ROM_BLOCK(CODE)                 A2A3                A404                162                                                                                                                                                                                                      *
* "D:\work\\DECODE~1\Debug\AC8_CO~1"                                                                                                                                                                                                                                                                  *
*    DEBUG                                               ----                ----                ----                                                                                                                                                                                                     *
*    CODE                                                ----                ----                ----                                                                                                                                                                                                     *
*    DATA                                                ----                ----                ----                                                                                                                                                                                                     *
*    TEXT                                                ----                ----                ----                                                                                                                                                                                                     *
*    IRAM                                                ----                ----                ----                                                                                                                                                                                                     *
*    ISRAM                                               ----                ----                ----                                                                                                                                                                                                     *
*    RAM                                                 ----                ----                ----                                                                                                                                                                                                     *
*    SRAM                                                ----                ----                ----                                                                                                                                                                                                     *
*    ORAM                                                ----                ----                ----                                                                                                                                                                                                     *
*    OSRAM                                               ----                ----                ----                                                                                                                                                                                                     *
*    NB_DATA                                             ----                ----                ----                                                                                                                                                                                                     *
*    CTOR                                                ----                ----                ----                                                                                                                                                                                                     *
*    DTOR                                                ----                ----                ----                                                                                                                                                                                                     *
*    IM                                                  ----                ----                ----                                                                                                                                                                                                     *
*    LINKONCE                                            ----                ----                ----                                                                                                                                                                                                     *
*    VTBL                                                ----                ----                ----                                                                                                                                                                                                     *
*    NB_MERGE                                            ----                ----                ----                                                                                                                                                                                                     *
*    RAM_BANK0                                           ----                ----                ----                                                                                                                                                                                                     *
*    IRAM_BANK0                                          ----                ----                ----                                                                                                                                                                                                     *
*    ORAM_BANK0                                          ----                ----                ----                                                                                                                                                                                                     *
*    OVERLAP_AC8_RAM_BLOCK(ORAM)                         30B                 412                 108                                                                                                                                                                                                      *
*    SACM_DVR4800_PM_Section(TEXT)                       822B                8F5C                D32                                                                                                                                                                                                      *
*    DVR4800CODE_ROM_INRAM(CODE)                         8F5D                9CEF                D93                                                                                                                                                                                                      *
* "Init Table"                                           8000                8008                9                                                                                                                                                                                                        *
***********************************************************************************************************************************************************************************************************************************************************************************************************

***********************************************************************************************************************************************************************************************************************************************************************************************************
*                             M E M O R Y     S U M M A R Y                                                                                                                                                                                                                                               *
***********************************************************************************************************************************************************************************************************************************************************************************************************
*     Type                          Total               Using        Remain                                                                                                                                                                                                                               *
***********************************************************************************************************************************************************************************************************************************************************************************************************
* "SRam/OSRam/ISRam"                40                   0            40                                                                                                                                                                                                                                  *
* "Ram"                             800                  425          3DB                                                                                                                                                                                                                                 *
* "First Bank Rom"                  7C00                 42FC         3904                                                                                                                                                                                                                                *
* "Other Banks Rom"                 0                    0            0                                                                                                                                                                                                                                   *
***********************************************************************************************************************************************************************************************************************************************************************************************************

Linker Output Filename : V:\svn\Library\16-bit\SACM_Library\Example Code\SACM Example Code\GPCE063A Example Code\DVR4800\Debug\SACM_DVR4800.S37
Disk  Mapping Filename : V:\svn\Library\16-bit\SACM_Library\Example Code\SACM Example Code\GPCE063A Example Code\DVR4800\Debug\SACM_DVR4800.map
Symbol  Table FileName : V:\svn\Library\16-bit\SACM_Library\Example Code\SACM Example Code\GPCE063A Example Code\DVR4800\Debug\SACM_DVR4800.sym
Format :                 Microtek

Linker Errors :          0
Output Format :          S37
